
TermProject.elf:     file format elf32-avr

Sections:
Idx Name          Size      VMA       LMA       File off  Algn
  0 .data         000001f4  00800100  000059ec  00005a80  2**0
                  CONTENTS, ALLOC, LOAD, DATA
  1 .text         000059ec  00000000  00000000  00000094  2**1
                  CONTENTS, ALLOC, LOAD, READONLY, CODE
  2 .bss          000003f4  008002f4  008002f4  00005c74  2**0
                  ALLOC
  3 .debug_aranges 00000040  00000000  00000000  00005c74  2**0
                  CONTENTS, READONLY, DEBUGGING
  4 .debug_pubnames 000009ef  00000000  00000000  00005cb4  2**0
                  CONTENTS, READONLY, DEBUGGING
  5 .debug_info   00001991  00000000  00000000  000066a3  2**0
                  CONTENTS, READONLY, DEBUGGING
  6 .debug_abbrev 00000575  00000000  00000000  00008034  2**0
                  CONTENTS, READONLY, DEBUGGING
  7 .debug_line   00000e91  00000000  00000000  000085a9  2**0
                  CONTENTS, READONLY, DEBUGGING
  8 .debug_frame  00000100  00000000  00000000  0000943c  2**2
                  CONTENTS, READONLY, DEBUGGING
  9 .debug_str    0000083a  00000000  00000000  0000953c  2**0
                  CONTENTS, READONLY, DEBUGGING
 10 .debug_loc    00000c16  00000000  00000000  00009d76  2**0
                  CONTENTS, READONLY, DEBUGGING
 11 .debug_ranges 00000060  00000000  00000000  0000a98c  2**0
                  CONTENTS, READONLY, DEBUGGING

Disassembly of section .text:

00000000 <__vectors>:
       0:	0c 94 e0 0b 	jmp	0x17c0	; 0x17c0 <__ctors_end>
       4:	0c 94 ff 0b 	jmp	0x17fe	; 0x17fe <__bad_interrupt>
       8:	0c 94 ff 0b 	jmp	0x17fe	; 0x17fe <__bad_interrupt>
       c:	0c 94 ff 0b 	jmp	0x17fe	; 0x17fe <__bad_interrupt>
      10:	0c 94 ff 0b 	jmp	0x17fe	; 0x17fe <__bad_interrupt>
      14:	0c 94 ff 0b 	jmp	0x17fe	; 0x17fe <__bad_interrupt>
      18:	0c 94 ff 0b 	jmp	0x17fe	; 0x17fe <__bad_interrupt>
      1c:	0c 94 ff 0b 	jmp	0x17fe	; 0x17fe <__bad_interrupt>
      20:	0c 94 ff 0b 	jmp	0x17fe	; 0x17fe <__bad_interrupt>
      24:	0c 94 ff 0b 	jmp	0x17fe	; 0x17fe <__bad_interrupt>
      28:	0c 94 ff 0b 	jmp	0x17fe	; 0x17fe <__bad_interrupt>
      2c:	0c 94 ff 0b 	jmp	0x17fe	; 0x17fe <__bad_interrupt>
      30:	0c 94 ff 0b 	jmp	0x17fe	; 0x17fe <__bad_interrupt>
      34:	0c 94 ff 0b 	jmp	0x17fe	; 0x17fe <__bad_interrupt>
      38:	0c 94 ff 0b 	jmp	0x17fe	; 0x17fe <__bad_interrupt>
      3c:	0c 94 ff 0b 	jmp	0x17fe	; 0x17fe <__bad_interrupt>
      40:	0c 94 ff 0b 	jmp	0x17fe	; 0x17fe <__bad_interrupt>
      44:	0c 94 ff 0b 	jmp	0x17fe	; 0x17fe <__bad_interrupt>
      48:	0c 94 ff 0b 	jmp	0x17fe	; 0x17fe <__bad_interrupt>
      4c:	0c 94 ff 0b 	jmp	0x17fe	; 0x17fe <__bad_interrupt>
      50:	0c 94 ff 0b 	jmp	0x17fe	; 0x17fe <__bad_interrupt>
      54:	0c 94 ff 0b 	jmp	0x17fe	; 0x17fe <__bad_interrupt>
      58:	0c 94 ff 0b 	jmp	0x17fe	; 0x17fe <__bad_interrupt>
      5c:	0c 94 ff 0b 	jmp	0x17fe	; 0x17fe <__bad_interrupt>
      60:	0c 94 ff 0b 	jmp	0x17fe	; 0x17fe <__bad_interrupt>
      64:	0c 94 ff 0b 	jmp	0x17fe	; 0x17fe <__bad_interrupt>
      68:	0c 94 e9 2b 	jmp	0x57d2	; 0x57d2 <__vector_26>
      6c:	0c 94 ff 0b 	jmp	0x17fe	; 0x17fe <__bad_interrupt>
      70:	0c 94 ff 0b 	jmp	0x17fe	; 0x17fe <__bad_interrupt>
      74:	0c 94 ff 0b 	jmp	0x17fe	; 0x17fe <__bad_interrupt>
      78:	0c 94 ff 0b 	jmp	0x17fe	; 0x17fe <__bad_interrupt>
      7c:	0c 94 ff 0b 	jmp	0x17fe	; 0x17fe <__bad_interrupt>
      80:	0c 94 ff 0b 	jmp	0x17fe	; 0x17fe <__bad_interrupt>
      84:	0c 94 ff 0b 	jmp	0x17fe	; 0x17fe <__bad_interrupt>
      88:	0c 94 ff 0b 	jmp	0x17fe	; 0x17fe <__bad_interrupt>
      8c:	c5 2a       	or	r12, r21
      8e:	d7 2a       	or	r13, r23
      90:	d7 2a       	or	r13, r23
      92:	d7 2a       	or	r13, r23
      94:	d7 2a       	or	r13, r23
      96:	d7 2a       	or	r13, r23
      98:	d7 2a       	or	r13, r23
      9a:	d7 2a       	or	r13, r23
      9c:	d7 2a       	or	r13, r23
      9e:	d7 2a       	or	r13, r23
      a0:	d7 2a       	or	r13, r23
      a2:	d7 2a       	or	r13, r23
      a4:	d7 2a       	or	r13, r23
      a6:	d7 2a       	or	r13, r23
      a8:	d7 2a       	or	r13, r23
      aa:	d7 2a       	or	r13, r23
      ac:	d7 2a       	or	r13, r23
      ae:	d7 2a       	or	r13, r23
      b0:	d7 2a       	or	r13, r23
      b2:	d7 2a       	or	r13, r23
      b4:	d7 2a       	or	r13, r23
      b6:	d7 2a       	or	r13, r23
      b8:	d7 2a       	or	r13, r23
      ba:	d7 2a       	or	r13, r23
      bc:	d7 2a       	or	r13, r23
      be:	d7 2a       	or	r13, r23
      c0:	d7 2a       	or	r13, r23
      c2:	d7 2a       	or	r13, r23
      c4:	d7 2a       	or	r13, r23
      c6:	15 27       	eor	r17, r21
      c8:	26 27       	eor	r18, r22
      ca:	ac 26       	eor	r10, r28
      cc:	c1 26       	eor	r12, r17
      ce:	d6 26       	eor	r13, r22
      d0:	eb 26       	eor	r14, r27
      d2:	00 27       	eor	r16, r16
      d4:	37 27       	eor	r19, r23
      d6:	4c 27       	eor	r20, r28
      d8:	61 27       	eor	r22, r17
      da:	76 27       	eor	r23, r22
      dc:	92 27       	eor	r25, r18
      de:	ba 2a       	or	r11, r26
      e0:	d7 2a       	or	r13, r23
      e2:	dd 27       	eor	r29, r29
      e4:	d7 2a       	or	r13, r23
      e6:	d7 2a       	or	r13, r23
      e8:	a7 2a       	or	r10, r23
      ea:	d7 2a       	or	r13, r23
      ec:	b4 27       	eor	r27, r20
      ee:	e9 27       	eor	r30, r25

000000f0 <progmem_ZERO>:
      f0:	00 00 00 00 ec 78 ce ce fe ee 7c fc 00 00 00 00     .....x....|.....

00000100 <progmem_ONE>:
     100:	00 00 00 00 7c 38 78 7c 38 38 18 18 00 00 00 00     ....|8x|88......

00000110 <progmem_TWO>:
     110:	00 00 00 00 f8 00 ec f8 7c 1c fe f8 00 fc 00 00     ........|.......

00000120 <progmem_THREE>:
     120:	00 00 00 00 f8 00 ec f8 1c 3c fc de 00 7c 00 00     .........<...|..

00000130 <progmem_FOUR>:
     130:	00 00 00 00 3c 1c fc 7c fe fc 18 fe 00 00 00 00     ....<..|........

00000140 <progmem_FIVE>:
     140:	00 00 00 00 fc fc 78 c0 1e 3c fc fc 00 00 00 00     ......x..<......

00000150 <progmem_SIX>:
     150:	00 00 00 00 70 30 fc f0 fe ee 7c fc 00 00 00 00     ....p0....|.....

00000160 <progmem_SEVEN>:
     160:	00 00 00 00 fc fc 1c fc 38 38 30 38 00 00 00 00     ........8808....

00000170 <progmem_EIGHT>:
     170:	00 00 00 00 ec 7c fc fc de fe fc fe 00 00 00 00     .....|..........

00000180 <progmem_NINE>:
     180:	00 00 00 00 fc 7c fe fe 1c fc 30 38 00 00 00 00     .....|....08....

00000190 <progmem_arm>:
	...
     1c0:	03 00 00 c0 0c 00 00 30 10 00 00 08 10 00 00 08     .......0........
     1d0:	20 00 00 04 20 00 00 04 20 00 00 04 20 00 00 04      ... ... ... ...
     1e0:	10 00 00 08 10 00 00 08 0c 00 38 30 03 00 40 c0     ..........80..@.
     1f0:	01 00 40 00 01 00 80 01 01 00 00 06 01 00 00 18     ..@.............
     200:	0f 00 00 e0 31 00 00 00 c1 00 00 00 01 03 00 00     ....1...........
     210:	01 04 00 00 01 04 00 00 01 38 00 00 01 00 00 00     .........8......
     220:	01 00 00 00 01 00 00 00 01 00 00 00 01 00 00 00     ................
     230:	03 00 00 00 02 00 00 80 04 00 00 80 04 00 00 40     ...............@
     240:	04 00 00 40 08 00 00 20 08 00 00 20 08 00 00 20     ...@... ... ... 
     250:	10 00 00 10 10 00 00 10 10 00 00 10 20 00 00 08     ............ ...
     260:	20 00 00 08 20 00 00 08 20 00 00 08 20 00 00 08      ... ... ... ...
     270:	e0 00 00 0e 00 00 00 00 00 00 00 00 00 00 00 00     ................
	...

00000290 <progmem_img_score>:
	...
     2ac:	0e 00 0f 1e 0f 83 8e c7 1d 38 0f 87 c0 0e 1c 30     .........8.....0
     2bc:	8e 0f c0 1d 38 3f 8c 1d 80 1f 71 03 cc b9 ce 38     ....8?....q....8
     2cc:	77 07 ee b9 ce 3b 1e 7f 0c 1f 00 1e 00 00 00 00     w....;..........
	...

000002f0 <progmem_BAD>:
	...
     328:	03 00 00 80 1c 00 00 00 7f 00 07 c0 fe 83 00 00     ................
     338:	71 00 07 e0 8e 03 00 00 38 00 0f 78 cf 81 00 00     q.......8..x....
     348:	38 00 1f 3c c7 c1 00 00 3c 00 1f 70 e7 c1 00 80     8..<....<..p....
     358:	3c 00 1d e0 c3 c1 00 80 39 00 3d c0 c3 c1 00 80     <.......9.=.....
     368:	3b 00 39 80 c3 e1 00 c0 3f 00 78 80 c1 e1 00 c0     ;.9.....?.x.....
     378:	3b 00 ff c1 c1 e1 00 e0 39 00 ff e1 c0 f1 00 e0     ;.......9.......
     388:	38 00 e0 f0 c1 f1 00 f0 38 00 e0 f0 cf f1 00 c0     8.......8.......
     398:	39 00 e0 e0 ff 71 00 00 3b 00 c0 c1 fc 71 00 00     9....q..;....q..
	...

000003f0 <progmem_basic1>:
	...
     420:	03 00 00 c0 0c 00 00 30 10 00 00 08 10 00 00 08     .......0........
     430:	20 00 00 04 20 00 00 04 20 00 00 04 20 00 00 04      ... ... ... ...
     440:	10 00 00 08 10 00 00 08 0c 00 00 30 03 00 00 c0     ...........0....
     450:	01 00 00 00 01 00 00 00 01 00 00 00 03 00 00 80     ................
     460:	03 00 00 80 05 00 00 40 05 00 00 40 09 00 00 20     .......@...@... 
     470:	09 00 00 20 11 00 00 20 11 00 00 10 21 00 00 10     ... ... ....!...
     480:	21 00 00 08 41 00 00 08 41 02 00 05 81 01 00 06     !...A...A.......
     490:	03 00 00 00 02 00 00 80 04 00 00 80 04 00 00 40     ...............@
     4a0:	04 00 00 40 08 00 00 20 08 00 00 20 08 00 00 20     ...@... ... ... 
     4b0:	10 00 00 10 10 00 00 10 10 00 00 10 20 00 00 08     ............ ...
     4c0:	20 00 00 08 20 00 00 08 20 00 00 08 20 00 00 08      ... ... ... ...
     4d0:	e0 00 00 0e 00 00 00 00 00 00 00 00 00 00 00 00     ................
	...

000004f0 <progmem_beside>:
	...
     520:	03 00 00 c0 0c 00 00 30 10 00 00 08 10 00 00 08     .......0........
     530:	20 00 00 04 20 00 00 04 20 08 00 04 20 00 00 04      ... ... ... ...
     540:	10 22 00 08 90 3b 00 08 cc 08 00 30 43 04 00 c0     ."...;.....0C...
     550:	41 04 00 00 c1 04 00 00 41 06 00 00 ff 07 00 00     A.......A.......
     560:	ff 03 00 00 01 00 00 04 01 00 00 00 01 00 00 00     ................
     570:	01 00 00 00 01 00 00 00 01 00 00 00 01 00 00 00     ................
     580:	01 00 00 00 01 00 00 40 01 00 00 00 01 00 00 00     .......@........
     590:	03 00 00 00 01 00 00 00 01 00 00 00 01 00 00 00     ................
     5a0:	02 00 00 80 04 00 00 80 09 00 00 00 19 00 00 00     ................
     5b0:	12 00 00 00 12 00 00 00 12 00 00 00 12 00 00 00     ................
     5c0:	31 00 00 00 21 00 00 00 21 00 00 80 20 00 00 40     1...!...!... ..@
     5d0:	20 00 00 20 e0 01 00 38 00 00 00 00 00 00 00 00      .. ...8........
	...

000005f0 <progmem_die>:
	...
     604:	ff 3d ff c0 fd 7f ff 80 31 66 36 80 31 66 36 80     .=......1f6.1f6.
     614:	31 66 36 80 31 66 36 88 31 7e 36 f8 31 3c b6 fb     1f6.1f6.1~6.1<..
	...
     644:	80 07 00 00 60 18 00 00 10 20 00 00 10 20 00 00     ....`.... ... ..
     654:	08 40 00 00 e8 7d 00 00 08 7c 00 00 08 4c 00 00     .@...}...|...L..
     664:	10 2c 00 00 10 2c 00 00 70 10 00 00 9c 0f 00 00     .,...,..p.......
     674:	24 00 00 00 27 00 00 00 65 00 00 00 64 00 00 80     $...'...e...d...
     684:	44 00 00 40 44 00 00 40 44 00 00 20 44 00 00 30     D..@D..@D.. D..0
     694:	44 00 00 28 44 00 00 68 c8 00 00 48 88 00 00 4c     D..(D..h...H...L
     6a4:	88 00 00 44 88 00 00 47 88 00 80 41 88 00 e0 40     ...D...G...A...@
     6b4:	88 07 38 40 38 00 0c 40 00 00 06 60 00 00 02 3e     ..8@8..@...`...>
     6c4:	00 00 e2 01 00 00 66 00 00 00 c4 00 00 00 80 00     ......f.........
	...

000006f0 <progmem_dudumchit>:
	...
     720:	03 00 00 c0 0c 00 00 30 10 00 00 08 10 00 00 08     .......0........
     730:	20 18 00 04 20 68 00 04 20 08 00 04 20 04 00 04      ... h.. ... ...
     740:	10 04 00 08 10 02 00 08 0c 02 00 30 03 01 00 c0     ...........0....
     750:	01 01 00 00 c1 00 00 00 39 00 00 00 07 00 00 c0     ........9.......
     760:	01 00 00 30 01 00 00 0c 01 00 00 02 01 00 00 01     ...0............
     770:	01 00 00 01 01 00 00 01 01 00 00 06 01 00 00 08     ................
     780:	01 00 00 30 01 00 00 40 01 00 00 20 01 00 00 00     ...0...@... ....
     790:	03 00 00 00 03 00 00 00 06 00 00 00 06 00 00 00     ................
     7a0:	0a 00 00 00 0a 00 00 00 0c 00 00 00 0c 00 00 00     ................
     7b0:	04 00 00 00 04 00 00 00 0a 00 00 00 09 00 00 00     ................
     7c0:	08 00 00 80 08 00 00 80 08 00 00 40 08 00 00 20     ...........@... 
     7d0:	08 00 00 10 78 00 00 20 00 00 00 40 00 00 00 00     ....x.. ...@....
	...

000007f0 <progmem_GOOD>:
	...
     838:	03 00 e0 e1 e0 f3 00 00 07 00 f3 f7 f8 fb 00 00     ................
     848:	0f 00 3b f7 fc 9f 00 00 0c 00 3f 6f fe 9d 00 00     ..;.......?o....
     858:	1c 00 3f 0f ff 9f 00 00 1d 00 3f ff ff 9f 00 00     ..?.......?.....
     868:	1d 00 3f ff ff 9f 00 00 1e 00 ff 7f ff ff 00 00     ..?.............
     878:	1f 00 ff ff de fd 00 00 0f 00 fb f7 fe ff 00 00     ................
     888:	07 00 f1 e3 fc f9 00 00 00 00 00 00 00 00 00 00     ................
	...

000008f0 <progmem_GREAT>:
	...
     940:	7f 00 0f f8 7f 8e 00 dc ff 00 1f ff 7f 9f 00 fe     ................
     950:	ff 01 3f ff ff bf 00 fe 8c 01 3c ff bf 3f 00 fe     ..?.......<..?..
     960:	80 03 7f ff cf 3f 00 3e be 03 7f ff cf 7f 00 3e     .....?.>.......>
     970:	be 03 70 fc cf 7f 00 1c ce 03 7f fe cf f3 00 1c     ..p.............
     980:	fe 03 7f fe cf ff 00 1c fe 01 ff ff c7 ff 00 3e     ...............>
     990:	fc 00 bf ef c7 f3 00 1c 00 00 00 00 00 00 00 00     ................
	...

000009f0 <progmem_heart3>:
	...
     a00:	04 00 00 20 0e 00 00 70 0f 00 00 f0 c7 01 c0 e3     ... ...p........
     a10:	33 02 20 cc 1d 04 20 9c 04 08 10 18 00 30 18 00     3. ... ......0..
     a20:	03 10 08 c0 0c 20 08 30 10 20 08 08 10 20 08 08     ..... .0. ... ..
     a30:	20 20 08 04 20 20 08 04 20 10 10 04 20 10 10 04       ..  .. ... ...
     a40:	10 18 20 08 10 08 20 08 0c 06 40 30 03 02 40 c0     .. ... ...@0..@.
     a50:	01 01 80 00 81 00 00 03 61 00 00 0c 3b 00 00 b0     ........a...;...
     a60:	0f 00 00 c0 01 00 00 00 01 00 00 00 01 00 00 00     ................
     a70:	01 00 00 00 01 00 00 00 01 00 00 00 01 00 00 00     ................
     a80:	01 00 00 00 01 00 00 00 01 00 00 00 01 00 00 00     ................
     a90:	03 00 00 00 02 00 00 80 04 00 00 80 04 00 00 40     ...............@
     aa0:	04 00 00 40 08 00 00 20 08 00 00 20 08 00 00 20     ...@... ... ... 
     ab0:	10 00 00 10 10 00 00 10 10 00 00 10 20 00 00 08     ............ ...
     ac0:	20 00 00 08 20 00 00 08 20 00 00 08 20 00 00 08      ... ... ... ...
     ad0:	e0 00 00 0e 00 00 00 00 00 00 00 00 00 00 00 00     ................
	...

00000af0 <progmem_jackson>:
	...
     b20:	03 00 00 c0 0c 00 00 34 10 00 00 0c 10 00 00 0c     .......4........
     b30:	20 00 00 06 20 00 00 05 20 00 00 05 20 00 80 04      ... ... ... ...
     b40:	10 00 80 08 10 00 40 08 0c 00 40 30 03 00 40 c0     ......@...@0..@.
     b50:	01 00 80 00 01 00 00 03 01 00 00 1c 03 00 00 e0     ................
     b60:	05 00 00 00 09 00 00 00 11 00 00 00 21 00 00 00     ............!...
     b70:	21 00 00 00 20 00 00 80 20 00 00 80 20 00 00 80     !... ... ... ...
     b80:	10 00 00 40 08 00 00 40 04 00 00 20 03 00 00 20     ...@...@... ... 
     b90:	00 00 00 f0 00 00 00 10 00 00 00 28 00 00 00 48     ...........(...H
     ba0:	01 00 00 90 06 00 00 20 18 00 00 40 20 00 00 80     ....... ...@ ...
     bb0:	41 00 00 00 82 00 00 00 82 00 00 00 82 00 00 00     A...............
     bc0:	82 00 00 00 82 00 00 00 82 00 00 00 82 00 00 00     ................
     bd0:	8e 03 00 00 00 00 00 00 00 00 00 00 00 00 00 00     ................
	...

00000bf0 <progmem_MISS>:
	...
     c38:	00 00 1c e6 f8 f8 00 00 01 00 3d ff fc fd 00 00     ..........=.....
     c48:	01 00 bd ff f0 f1 00 00 01 00 bd ff f0 f1 00 00     ................
     c58:	03 00 bd ff f8 f9 00 00 03 00 bc ff fc fc 00 00     ................
     c68:	03 00 fc ff 7e 7e 00 00 03 00 fc bf 3e 3e 00 00     ....~~......>>..
     c78:	03 00 dc bf 3e 3e 00 00 03 00 9f 87 fc ff 00 00     ....>>..........
     c88:	03 00 99 83 f8 f9 00 00 00 00 00 00 00 00 00 00     ................
	...

00000cf8 <progmem_perfect>:
	...
     d40:	00 00 01 00 00 f0 30 00 00 00 03 00 00 80 30 00     ......0.......0.
     d50:	00 00 03 00 00 80 70 00 07 ff ff c6 e0 e3 fe 7d     ......p........}
     d60:	c6 07 c3 e7 70 83 70 ec 8e 71 83 e7 71 87 70 c0     ....p.p..q..q.p.
     d70:	9f 73 03 e7 f1 8f 70 c0 9f 73 03 07 83 0f 70 80     .s....p..s....p.
     d80:	38 73 03 e7 77 1c 70 1c 3f 7f 03 e7 f7 1f 70 fc     8s..w.p.?.....p.
     d90:	0f 7c 03 07 81 07 70 e0 00 70 00 00 00 00 00 00     .|....p..p......
     da0:	00 70 00 00 00 00 00 00 00 00 00 00 00 00 00 00     .p..............
	...

00000df8 <progmem_superman>:
	...
     e28:	03 00 00 c0 0c 00 00 30 10 00 00 08 10 20 00 08     .......0..... ..
     e38:	20 10 00 04 20 08 00 04 20 04 00 04 20 02 00 04      ... ... ... ...
     e48:	10 01 00 08 90 00 00 08 4c 00 00 30 23 00 00 c0     ........L..0#...
     e58:	11 00 00 04 09 00 00 02 05 00 00 01 03 00 00 02     ................
     e68:	01 00 00 84 01 00 00 48 01 00 00 30 01 00 00 00     .......H...0....
     e78:	01 00 00 00 01 00 00 00 01 00 00 00 01 00 00 00     ................
     e88:	01 00 00 00 01 00 00 00 01 00 00 00 01 00 00 00     ................
     e98:	03 00 00 00 02 00 00 80 04 00 00 80 04 00 00 40     ...............@
     ea8:	04 00 00 40 08 00 00 20 08 00 00 20 08 00 00 20     ...@... ... ... 
     eb8:	04 00 00 10 04 00 00 10 04 00 00 10 02 00 00 08     ................
     ec8:	01 00 00 04 00 00 00 82 00 00 00 41 00 00 80 20     ...........A... 
     ed8:	00 00 40 10 00 00 00 00 00 00 00 00 00 00 00 00     ..@.............
	...

00000ef8 <progmem_life>:
	...
     f00:	00 00 70 0e fc 1f fc 3f fe 7f fe 7f fe 7f fe 7f     ..p....?........
     f10:	fc 3f fc 3f f8 1f f0 0f e0 07 c0 03 00 00 00 00     .?.?............

00000f20 <progmem_comboIMG>:
	...
     f30:	ed 7d 78 fe 7f e3 dc f7 3f c3 cc f6 3f c3 cc fe     .}x.....?...?...
     f40:	3f c3 cc f3 7c e3 dc f3 ec 7d 78 fe 00 00 00 00     ?...|....}x.....
	...

00000f60 <progmem_lifebroken>:
	...

00000f80 <progmem_musicnote>:
     f80:	00 00 00 00 00 00 80 01 c0 01 e0 01 f0 01 b0 01     ................
     f90:	b0 01 b0 01 e0 01 c0 07 00 0f 00 00 00 00 00 00     ................

00000fa0 <progmem_img_over>:
	...
    10b4:	f0 00 00 00 00 00 00 00 f0 00 00 00 00 00 00 00     ................
    10c4:	f0 00 00 00 00 00 00 00 f0 00 00 00 00 00 e0 01     ................
    10d4:	f0 00 00 00 00 00 00 00 f0 00 00 00 00 00 f0 01     ................
    10e4:	f0 00 00 00 00 00 ff 1f f0 80 00 00 00 00 f0 01     ................
    10f4:	f0 00 00 00 00 00 ff 1f f0 80 00 00 00 00 f0 00     ................
    1104:	f0 00 00 00 00 00 78 00 f0 00 00 00 00 00 f0 00     ......x.........
    1114:	f0 00 ff 07 00 f8 f8 00 f0 00 00 00 00 00 f0 00     ................
    1124:	f0 00 ff 07 e0 ff f0 00 f0 00 00 00 00 00 f0 00     ................
    1134:	f0 00 03 00 e0 ff f0 00 f0 7f 00 00 00 00 f0 00     ................
    1144:	f0 00 00 00 e0 03 f0 01 f0 ff 00 00 00 00 f7 00     ................
    1154:	f0 00 00 00 e0 03 f0 01 f0 e0 00 00 00 00 ff 0f     ................
    1164:	f0 f0 00 00 c0 03 e0 03 f0 00 00 00 00 00 ff 7f     ................
    1174:	f0 f0 00 00 c0 03 ff 07 f0 80 00 00 00 00 f8 7f     ................
    1184:	f0 00 ff 01 c0 f3 9f 0f e0 e0 00 00 00 00 f0 01     ................
    1194:	f0 00 ff 07 c0 ff 07 1f e0 f0 00 00 00 00 ef 03     ................
    11a4:	f0 80 ff 07 c0 ff 00 3e e0 f0 00 00 00 00 c7 07     .......>........
    11b4:	f0 bf 00 00 c0 07 00 7c 00 00 00 00 00 00 c7 0f     .......|........
    11c4:	f0 ff 00 00 c0 07 00 78 78 70 00 00 00 00 87 1f     .......xxp......
    11d4:	f0 f8 00 00 80 07 00 00 78 f0 00 00 00 00 03 1f     ........x.......
    11e4:	f0 c0 00 00 80 07 00 00 78 f0 00 00 00 00 03 3e     ........x......>
    11f4:	f0 c0 00 00 00 0f 00 00 f8 ff 00 00 00 00 3f 3e     ..............?>
    1204:	f0 e0 00 00 00 03 00 00 f8 ff 00 00 00 00 ff 1f     ................
    1214:	e0 e0 00 00 00 00 00 00 f8 ff 00 00 00 00 fe 0f     ................
    1224:	e0 00 00 00 00 00 01 00 f8 f3 00 00 00 00 e0 0f     ................
    1234:	e0 00 00 00 00 00 01 00 fc f7 00 00 00 00 00 06     ................
    1244:	e0 00 00 00 00 00 01 00 fc e7 00 00 00 00 00 00     ................
    1254:	e0 00 00 00 00 00 01 00 e0 ef 00 00 00 00 00 00     ................
    1264:	00 00 00 00 00 00 01 00 00 e0 00 00 00 00 00 00     ................
	...

000013a0 <progmem_img_over2>:
	...
    14a4:	00 70 00 00 00 00 00 00 00 00 00 00 00 00 01 00     .p..............
    14b4:	00 f8 00 00 00 00 00 00 00 00 00 00 00 00 03 00     ................
    14c4:	00 fc 00 00 00 00 00 00 00 00 00 00 00 00 07 00     ................
    14d4:	00 f0 00 00 00 f8 00 00 00 00 00 00 00 00 1f 00     ................
    14e4:	00 df 0f 00 00 f8 00 00 00 00 00 00 00 00 3f 00     ..............?.
    14f4:	80 8f ff 00 00 fc 00 00 00 00 00 00 00 00 7e 00     ..............~.
    1504:	c0 07 ff 03 00 fc 00 00 00 00 00 00 00 00 fc 01     ................
    1514:	e0 03 fc 03 00 7e 00 00 00 00 00 00 00 00 f0 03     .....~..........
    1524:	f0 01 80 01 00 3e ff ff 00 80 00 00 00 00 e0 07     .....>..........
    1534:	fc 01 00 00 00 3e ff ff 80 ff 00 00 00 00 c0 0f     .....>..........
    1544:	fe 7f 00 00 00 7e ff 07 80 ff 00 00 00 00 ef 07     .....~..........
    1554:	e6 ff 00 00 00 fc 00 00 80 3f 00 00 00 00 ff 03     .........?......
    1564:	00 fc 00 00 00 f8 00 00 80 0f 00 00 00 00 ff 01     ................
    1574:	00 f0 01 00 00 f0 00 00 80 0f 00 00 00 00 f8 00     ................
    1584:	00 f0 03 00 00 f0 00 00 00 1f 00 00 00 00 00 00     ................
    1594:	00 f0 03 00 00 e0 00 00 00 1f 00 00 00 00 00 00     ................
    15a4:	ff ff 07 00 00 c0 ff 07 00 1f 00 00 00 00 ff 07     ................
    15b4:	ff ff 0f 00 00 c0 ff ff 00 df 00 00 00 00 ff 0f     ................
    15c4:	ff ff 0f 00 00 80 ff ff 00 df 00 00 00 00 ff 0f     ................
    15d4:	00 00 1f 00 00 00 00 00 00 1f 00 00 00 00 00 00     ................
    15e4:	00 78 3e 00 00 00 00 00 00 3f 00 00 00 00 03 00     .x>......?......
    15f4:	00 fe 3e 00 00 00 00 00 00 3e 00 00 00 00 3f 00     ..>......>....?.
    1604:	80 ff 7c 00 00 00 00 00 00 3e 00 00 00 00 3f 00     ..|......>....?.
    1614:	c0 ff 18 00 00 00 00 00 00 3e 00 00 00 00 3e 00     .........>....>.
    1624:	e0 3f 00 00 00 00 00 00 00 3c 00 00 00 00 00 00     .?.......<......
    1634:	00 fe 00 00 00 00 00 00 00 3c 00 00 00 00 03 00     .........<......
    1644:	00 f8 3c 00 00 00 00 00 00 00 00 00 00 00 0f 00     ..<.............
    1654:	00 ff 3e 00 00 00 00 00 00 00 00 00 00 00 0f 00     ..>.............
    1664:	80 ff 3e 00 00 00 00 00 00 00 00 00 00 00 07 00     ..>.............
    1674:	80 ff 3e 00 00 00 00 00 00 00 00 00 00 00 00 00     ..>.............
    1684:	00 fe 3c 00 00 00 00 00 00 00 00 00 00 00 03 00     ..<.............
    1694:	c0 ff 00 00 00 00 00 00 00 00 00 00 00 00 03 00     ................
    16a4:	c0 ff 00 00 00 00 00 00 00 00 00 00 00 00 01 00     ................
    16b4:	c0 ff 00 00 00 00 00 00 00 00 00 00 00 00 00 00     ................
	...

000017a0 <progmem_nonote>:
    17a0:	00 00 00 00 04 20 08 10 10 08 20 04 40 02 80 01     ..... .... .@...
    17b0:	80 01 40 02 20 04 10 08 08 10 04 20 00 00 00 00     ..@. ...... ....

000017c0 <__ctors_end>:
    17c0:	11 24       	eor	r1, r1
    17c2:	1f be       	out	0x3f, r1	; 63
    17c4:	cf ef       	ldi	r28, 0xFF	; 255
    17c6:	d0 e1       	ldi	r29, 0x10	; 16
    17c8:	de bf       	out	0x3e, r29	; 62
    17ca:	cd bf       	out	0x3d, r28	; 61

000017cc <__do_copy_data>:
    17cc:	12 e0       	ldi	r17, 0x02	; 2
    17ce:	a0 e0       	ldi	r26, 0x00	; 0
    17d0:	b1 e0       	ldi	r27, 0x01	; 1
    17d2:	ec ee       	ldi	r30, 0xEC	; 236
    17d4:	f9 e5       	ldi	r31, 0x59	; 89
    17d6:	00 e0       	ldi	r16, 0x00	; 0
    17d8:	0b bf       	out	0x3b, r16	; 59
    17da:	02 c0       	rjmp	.+4      	; 0x17e0 <__do_copy_data+0x14>
    17dc:	07 90       	elpm	r0, Z+
    17de:	0d 92       	st	X+, r0
    17e0:	a4 3f       	cpi	r26, 0xF4	; 244
    17e2:	b1 07       	cpc	r27, r17
    17e4:	d9 f7       	brne	.-10     	; 0x17dc <__do_copy_data+0x10>

000017e6 <__do_clear_bss>:
    17e6:	16 e0       	ldi	r17, 0x06	; 6
    17e8:	a4 ef       	ldi	r26, 0xF4	; 244
    17ea:	b2 e0       	ldi	r27, 0x02	; 2
    17ec:	01 c0       	rjmp	.+2      	; 0x17f0 <.do_clear_bss_start>

000017ee <.do_clear_bss_loop>:
    17ee:	1d 92       	st	X+, r1

000017f0 <.do_clear_bss_start>:
    17f0:	a8 3e       	cpi	r26, 0xE8	; 232
    17f2:	b1 07       	cpc	r27, r17
    17f4:	e1 f7       	brne	.-8      	; 0x17ee <.do_clear_bss_loop>
    17f6:	0e 94 14 18 	call	0x3028	; 0x3028 <main>
    17fa:	0c 94 f4 2c 	jmp	0x59e8	; 0x59e8 <_exit>

000017fe <__bad_interrupt>:
    17fe:	0c 94 00 00 	jmp	0	; 0x0 <__vectors>

00001802 <createHearts>:
			}
	//	sei();
		}
	}
}
void createHearts(){
    1802:	0f 93       	push	r16
    1804:	1f 93       	push	r17
    1806:	cf 93       	push	r28
    1808:	df 93       	push	r29
    180a:	50 91 b1 02 	lds	r21, 0x02B1
    180e:	c0 91 73 03 	lds	r28, 0x0373
    1812:	d0 91 74 03 	lds	r29, 0x0374
    1816:	28 e2       	ldi	r18, 0x28	; 40
    1818:	33 e0       	ldi	r19, 0x03	; 3
    181a:	40 e0       	ldi	r20, 0x00	; 0
	int i;
	for(i=0;i<MAX_HEART;i++){
		obj_hearts[i] = OLED_CREATE_OBJECT(0,0);
		obj_hearts[i]->idx_bitmap = HEART_INDEX;
    181c:	0f e1       	ldi	r16, 0x1F	; 31
		obj_hearts[i]->left = i * WIDTH_life;
		obj_hearts[i]->right = i * WIDTH_life+ 15;
		obj_hearts[i]->top = 0; obj_hearts[i]->bottom = HEIGHT_life-1;
    181e:	1f e0       	ldi	r17, 0x0F	; 15
	}
}
void createHearts(){
	int i;
	for(i=0;i<MAX_HEART;i++){
		obj_hearts[i] = OLED_CREATE_OBJECT(0,0);
    1820:	8c 85       	ldd	r24, Y+12	; 0x0c
    1822:	9d 85       	ldd	r25, Y+13	; 0x0d
    1824:	00 97       	sbiw	r24, 0x00	; 0
    1826:	19 f4       	brne	.+6      	; 0x182e <createHearts+0x2c>
    1828:	60 e0       	ldi	r22, 0x00	; 0
    182a:	70 e0       	ldi	r23, 0x00	; 0
    182c:	0b c0       	rjmp	.+22     	; 0x1844 <createHearts+0x42>
    182e:	aa 85       	ldd	r26, Y+10	; 0x0a
    1830:	bb 85       	ldd	r27, Y+11	; 0x0b
    1832:	1d 96       	adiw	r26, 0x0d	; 13
    1834:	9c 93       	st	X, r25
    1836:	8e 93       	st	-X, r24
    1838:	1c 97       	sbiw	r26, 0x0c	; 12
    183a:	ec 85       	ldd	r30, Y+12	; 0x0c
    183c:	fd 85       	ldd	r31, Y+13	; 0x0d
    183e:	b3 87       	std	Z+11, r27	; 0x0b
    1840:	a2 87       	std	Z+10, r26	; 0x0a
    1842:	bf 01       	movw	r22, r30
    1844:	a0 91 81 03 	lds	r26, 0x0381
    1848:	b0 91 82 03 	lds	r27, 0x0382
    184c:	10 97       	sbiw	r26, 0x00	; 0
    184e:	49 f4       	brne	.+18     	; 0x1862 <createHearts+0x60>
    1850:	db 87       	std	Y+11, r29	; 0x0b
    1852:	ca 87       	std	Y+10, r28	; 0x0a
    1854:	dd 87       	std	Y+13, r29	; 0x0d
    1856:	cc 87       	std	Y+12, r28	; 0x0c
    1858:	d0 93 7a 03 	sts	0x037A, r29
    185c:	c0 93 79 03 	sts	0x0379, r28
    1860:	12 c0       	rjmp	.+36     	; 0x1886 <createHearts+0x84>
    1862:	bb 87       	std	Y+11, r27	; 0x0b
    1864:	aa 87       	std	Y+10, r26	; 0x0a
    1866:	1c 96       	adiw	r26, 0x0c	; 12
    1868:	8d 91       	ld	r24, X+
    186a:	9c 91       	ld	r25, X
    186c:	1d 97       	sbiw	r26, 0x0d	; 13
    186e:	9d 87       	std	Y+13, r25	; 0x0d
    1870:	8c 87       	std	Y+12, r24	; 0x0c
    1872:	1c 96       	adiw	r26, 0x0c	; 12
    1874:	ed 91       	ld	r30, X+
    1876:	fc 91       	ld	r31, X
    1878:	1d 97       	sbiw	r26, 0x0d	; 13
    187a:	d3 87       	std	Z+11, r29	; 0x0b
    187c:	c2 87       	std	Z+10, r28	; 0x0a
    187e:	1d 96       	adiw	r26, 0x0d	; 13
    1880:	dc 93       	st	X, r29
    1882:	ce 93       	st	-X, r28
    1884:	1c 97       	sbiw	r26, 0x0c	; 12
    1886:	d0 93 82 03 	sts	0x0382, r29
    188a:	c0 93 81 03 	sts	0x0381, r28
    188e:	1d 82       	std	Y+5, r1	; 0x05
    1890:	51 60       	ori	r21, 0x01	; 1
    1892:	d9 01       	movw	r26, r18
    1894:	11 96       	adiw	r26, 0x01	; 1
    1896:	dc 93       	st	X, r29
    1898:	ce 93       	st	-X, r28
		obj_hearts[i]->idx_bitmap = HEART_INDEX;
    189a:	08 83       	st	Y, r16
		obj_hearts[i]->left = i * WIDTH_life;
    189c:	ed 91       	ld	r30, X+
    189e:	fc 91       	ld	r31, X
    18a0:	11 97       	sbiw	r26, 0x01	; 1
    18a2:	41 83       	std	Z+1, r20	; 0x01
		obj_hearts[i]->right = i * WIDTH_life+ 15;
    18a4:	ed 91       	ld	r30, X+
    18a6:	fc 91       	ld	r31, X
    18a8:	11 97       	sbiw	r26, 0x01	; 1
    18aa:	41 5f       	subi	r20, 0xF1	; 241
    18ac:	43 83       	std	Z+3, r20	; 0x03
		obj_hearts[i]->top = 0; obj_hearts[i]->bottom = HEIGHT_life-1;
    18ae:	ed 91       	ld	r30, X+
    18b0:	fc 91       	ld	r31, X
    18b2:	11 97       	sbiw	r26, 0x01	; 1
    18b4:	12 82       	std	Z+2, r1	; 0x02
    18b6:	ed 91       	ld	r30, X+
    18b8:	fc 91       	ld	r31, X
    18ba:	11 97       	sbiw	r26, 0x01	; 1
    18bc:	14 83       	std	Z+4, r17	; 0x04
		OLED_INVALIDATE_OBJECT_SIMPLE(obj_hearts[i]);
    18be:	ed 91       	ld	r30, X+
    18c0:	fd 91       	ld	r31, X+
    18c2:	9d 01       	movw	r18, r26
    18c4:	85 81       	ldd	r24, Z+5	; 0x05
    18c6:	81 60       	ori	r24, 0x01	; 1
    18c8:	85 83       	std	Z+5, r24	; 0x05
    18ca:	4f 5f       	subi	r20, 0xFF	; 255
		}
	}
}
void createHearts(){
	int i;
	for(i=0;i<MAX_HEART;i++){
    18cc:	40 38       	cpi	r20, 0x80	; 128
    18ce:	11 f0       	breq	.+4      	; 0x18d4 <createHearts+0xd2>
    18d0:	eb 01       	movw	r28, r22
    18d2:	a6 cf       	rjmp	.-180    	; 0x1820 <createHearts+0x1e>
    18d4:	d0 93 78 03 	sts	0x0378, r29
    18d8:	c0 93 77 03 	sts	0x0377, r28
    18dc:	70 93 74 03 	sts	0x0374, r23
    18e0:	60 93 73 03 	sts	0x0373, r22
		obj_hearts[i]->left = i * WIDTH_life;
		obj_hearts[i]->right = i * WIDTH_life+ 15;
		obj_hearts[i]->top = 0; obj_hearts[i]->bottom = HEIGHT_life-1;
		OLED_INVALIDATE_OBJECT_SIMPLE(obj_hearts[i]);
	}
	OLED_INVALIDATE();
    18e4:	52 60       	ori	r21, 0x02	; 2
    18e6:	50 93 b1 02 	sts	0x02B1, r21
}
    18ea:	df 91       	pop	r29
    18ec:	cf 91       	pop	r28
    18ee:	1f 91       	pop	r17
    18f0:	0f 91       	pop	r16
    18f2:	08 95       	ret

000018f4 <refreshHearts>:
unsigned char hearts_count = 8;
void refreshHearts(){
	register int i;
	register struct OLED_Object* obj;
	for(i=0;i<hearts_count;i++){
    18f4:	80 91 66 02 	lds	r24, 0x0266
    18f8:	48 2f       	mov	r20, r24
    18fa:	50 e0       	ldi	r21, 0x00	; 0
    18fc:	a8 e2       	ldi	r26, 0x28	; 40
    18fe:	b3 e0       	ldi	r27, 0x03	; 3
		OLED_INVALIDATE_OBJECT_SIMPLE(obj_hearts[i]);
	}
	OLED_INVALIDATE();
}
unsigned char hearts_count = 8;
void refreshHearts(){
    1900:	ba 01       	movw	r22, r20
	register int i;
	register struct OLED_Object* obj;
	for(i=0;i<hearts_count;i++){
    1902:	9a 01       	movw	r18, r20
    1904:	22 0f       	add	r18, r18
    1906:	33 1f       	adc	r19, r19
    1908:	2a 0f       	add	r18, r26
    190a:	3b 1f       	adc	r19, r27
		obj = obj_hearts[i];
		obj->idx_bitmap = HEART_INDEX;
    190c:	9f e1       	ldi	r25, 0x1F	; 31
    190e:	06 c0       	rjmp	.+12     	; 0x191c <refreshHearts+0x28>
unsigned char hearts_count = 8;
void refreshHearts(){
	register int i;
	register struct OLED_Object* obj;
	for(i=0;i<hearts_count;i++){
		obj = obj_hearts[i];
    1910:	ed 91       	ld	r30, X+
    1912:	fd 91       	ld	r31, X+
		obj->idx_bitmap = HEART_INDEX;
    1914:	90 83       	st	Z, r25
		OLED_INVALIDATE_OBJECT_SIMPLE(obj);
    1916:	85 81       	ldd	r24, Z+5	; 0x05
    1918:	81 60       	ori	r24, 0x01	; 1
    191a:	85 83       	std	Z+5, r24	; 0x05
}
unsigned char hearts_count = 8;
void refreshHearts(){
	register int i;
	register struct OLED_Object* obj;
	for(i=0;i<hearts_count;i++){
    191c:	a2 17       	cp	r26, r18
    191e:	b3 07       	cpc	r27, r19
    1920:	b9 f7       	brne	.-18     	; 0x1910 <refreshHearts+0x1c>
    1922:	da 01       	movw	r26, r20
    1924:	aa 0f       	add	r26, r26
    1926:	bb 1f       	adc	r27, r27
    1928:	a8 5d       	subi	r26, 0xD8	; 216
    192a:	bc 4f       	sbci	r27, 0xFC	; 252
    192c:	20 e0       	ldi	r18, 0x00	; 0
    192e:	30 e0       	ldi	r19, 0x00	; 0
    1930:	08 c0       	rjmp	.+16     	; 0x1942 <refreshHearts+0x4e>
		obj->idx_bitmap = HEART_INDEX;
		OLED_INVALIDATE_OBJECT_SIMPLE(obj);
	}
	for(;i<MAX_HEART;i++)
	{
		obj = obj_hearts[i];
    1932:	ed 91       	ld	r30, X+
    1934:	fd 91       	ld	r31, X+
		obj->idx_bitmap = HEART_BROKEN_INDEX;
    1936:	10 82       	st	Z, r1
		OLED_INVALIDATE_OBJECT_SIMPLE(obj);
    1938:	85 81       	ldd	r24, Z+5	; 0x05
    193a:	81 60       	ori	r24, 0x01	; 1
    193c:	85 83       	std	Z+5, r24	; 0x05
    193e:	2f 5f       	subi	r18, 0xFF	; 255
    1940:	3f 4f       	sbci	r19, 0xFF	; 255
	for(i=0;i<hearts_count;i++){
		obj = obj_hearts[i];
		obj->idx_bitmap = HEART_INDEX;
		OLED_INVALIDATE_OBJECT_SIMPLE(obj);
	}
	for(;i<MAX_HEART;i++)
    1942:	c9 01       	movw	r24, r18
    1944:	86 0f       	add	r24, r22
    1946:	97 1f       	adc	r25, r23
    1948:	08 97       	sbiw	r24, 0x08	; 8
    194a:	9c f3       	brlt	.-26     	; 0x1932 <refreshHearts+0x3e>
	{
		obj = obj_hearts[i];
		obj->idx_bitmap = HEART_BROKEN_INDEX;
		OLED_INVALIDATE_OBJECT_SIMPLE(obj);
	}
	OLED_INVALIDATE();
    194c:	80 91 b1 02 	lds	r24, 0x02B1
    1950:	82 60       	ori	r24, 0x02	; 2
    1952:	80 93 b1 02 	sts	0x02B1, r24
}
    1956:	08 95       	ret

00001958 <CreateObjectsMain>:
struct OLED_Object* obj_me_musicnotes[8],*obj_com_musicnotes[8];

void CreateObjectsMain(){
    1958:	cf 93       	push	r28
    195a:	df 93       	push	r29
	int i;


	me = OLED_CREATE_OBJECT(0,0);
    195c:	e0 91 73 03 	lds	r30, 0x0373
    1960:	f0 91 74 03 	lds	r31, 0x0374
    1964:	f0 93 78 03 	sts	0x0378, r31
    1968:	e0 93 77 03 	sts	0x0377, r30
    196c:	84 85       	ldd	r24, Z+12	; 0x0c
    196e:	95 85       	ldd	r25, Z+13	; 0x0d
    1970:	00 97       	sbiw	r24, 0x00	; 0
    1972:	29 f4       	brne	.+10     	; 0x197e <CreateObjectsMain+0x26>
    1974:	10 92 74 03 	sts	0x0374, r1
    1978:	10 92 73 03 	sts	0x0373, r1
    197c:	0f c0       	rjmp	.+30     	; 0x199c <CreateObjectsMain+0x44>
    197e:	a2 85       	ldd	r26, Z+10	; 0x0a
    1980:	b3 85       	ldd	r27, Z+11	; 0x0b
    1982:	1d 96       	adiw	r26, 0x0d	; 13
    1984:	9c 93       	st	X, r25
    1986:	8e 93       	st	-X, r24
    1988:	1c 97       	sbiw	r26, 0x0c	; 12
    198a:	04 84       	ldd	r0, Z+12	; 0x0c
    198c:	f5 85       	ldd	r31, Z+13	; 0x0d
    198e:	e0 2d       	mov	r30, r0
    1990:	b3 87       	std	Z+11, r27	; 0x0b
    1992:	a2 87       	std	Z+10, r26	; 0x0a
    1994:	f0 93 74 03 	sts	0x0374, r31
    1998:	e0 93 73 03 	sts	0x0373, r30
    199c:	80 91 81 03 	lds	r24, 0x0381
    19a0:	90 91 82 03 	lds	r25, 0x0382
    19a4:	a0 91 77 03 	lds	r26, 0x0377
    19a8:	b0 91 78 03 	lds	r27, 0x0378
    19ac:	00 97       	sbiw	r24, 0x00	; 0
    19ae:	99 f4       	brne	.+38     	; 0x19d6 <CreateObjectsMain+0x7e>
    19b0:	0a 2e       	mov	r0, r26
    19b2:	1b 2e       	mov	r1, r27
    19b4:	1b 96       	adiw	r26, 0x0b	; 11
    19b6:	1c 92       	st	X, r1
    19b8:	0e 92       	st	-X, r0
    19ba:	11 24       	eor	r1, r1
    19bc:	1a 97       	sbiw	r26, 0x0a	; 10
    19be:	0a 2e       	mov	r0, r26
    19c0:	1b 2e       	mov	r1, r27
    19c2:	1d 96       	adiw	r26, 0x0d	; 13
    19c4:	1c 92       	st	X, r1
    19c6:	0e 92       	st	-X, r0
    19c8:	11 24       	eor	r1, r1
    19ca:	1c 97       	sbiw	r26, 0x0c	; 12
    19cc:	b0 93 7a 03 	sts	0x037A, r27
    19d0:	a0 93 79 03 	sts	0x0379, r26
    19d4:	1d c0       	rjmp	.+58     	; 0x1a10 <CreateObjectsMain+0xb8>
    19d6:	1b 96       	adiw	r26, 0x0b	; 11
    19d8:	9c 93       	st	X, r25
    19da:	8e 93       	st	-X, r24
    19dc:	1a 97       	sbiw	r26, 0x0a	; 10
    19de:	e0 91 81 03 	lds	r30, 0x0381
    19e2:	f0 91 82 03 	lds	r31, 0x0382
    19e6:	84 85       	ldd	r24, Z+12	; 0x0c
    19e8:	95 85       	ldd	r25, Z+13	; 0x0d
    19ea:	1d 96       	adiw	r26, 0x0d	; 13
    19ec:	9c 93       	st	X, r25
    19ee:	8e 93       	st	-X, r24
    19f0:	1c 97       	sbiw	r26, 0x0c	; 12
    19f2:	e0 91 81 03 	lds	r30, 0x0381
    19f6:	f0 91 82 03 	lds	r31, 0x0382
    19fa:	04 84       	ldd	r0, Z+12	; 0x0c
    19fc:	f5 85       	ldd	r31, Z+13	; 0x0d
    19fe:	e0 2d       	mov	r30, r0
    1a00:	b3 87       	std	Z+11, r27	; 0x0b
    1a02:	a2 87       	std	Z+10, r26	; 0x0a
    1a04:	e0 91 81 03 	lds	r30, 0x0381
    1a08:	f0 91 82 03 	lds	r31, 0x0382
    1a0c:	b5 87       	std	Z+13, r27	; 0x0d
    1a0e:	a4 87       	std	Z+12, r26	; 0x0c
    1a10:	e0 91 77 03 	lds	r30, 0x0377
    1a14:	f0 91 78 03 	lds	r31, 0x0378
    1a18:	f0 93 82 03 	sts	0x0382, r31
    1a1c:	e0 93 81 03 	sts	0x0381, r30
    1a20:	15 82       	std	Z+5, r1	; 0x05
    1a22:	80 91 b1 02 	lds	r24, 0x02B1
    1a26:	81 60       	ori	r24, 0x01	; 1
    1a28:	80 93 b1 02 	sts	0x02B1, r24
    1a2c:	e0 91 77 03 	lds	r30, 0x0377
    1a30:	f0 91 78 03 	lds	r31, 0x0378
    1a34:	f0 93 24 03 	sts	0x0324, r31
    1a38:	e0 93 23 03 	sts	0x0323, r30
	me->idx_bitmap = DANCE_INDEX;
    1a3c:	81 e0       	ldi	r24, 0x01	; 1
    1a3e:	80 83       	st	Z, r24
	me->left = 16;
    1a40:	e0 91 23 03 	lds	r30, 0x0323
    1a44:	f0 91 24 03 	lds	r31, 0x0324
    1a48:	80 e1       	ldi	r24, 0x10	; 16
    1a4a:	81 83       	std	Z+1, r24	; 0x01
	me->right = 47;
    1a4c:	e0 91 23 03 	lds	r30, 0x0323
    1a50:	f0 91 24 03 	lds	r31, 0x0324
    1a54:	8f e2       	ldi	r24, 0x2F	; 47
    1a56:	83 83       	std	Z+3, r24	; 0x03
	me->top = 32;
    1a58:	e0 91 23 03 	lds	r30, 0x0323
    1a5c:	f0 91 24 03 	lds	r31, 0x0324
    1a60:	80 e2       	ldi	r24, 0x20	; 32
    1a62:	82 83       	std	Z+2, r24	; 0x02
	me->bottom = 95;
    1a64:	e0 91 23 03 	lds	r30, 0x0323
    1a68:	f0 91 24 03 	lds	r31, 0x0324
    1a6c:	8f e5       	ldi	r24, 0x5F	; 95
    1a6e:	84 83       	std	Z+4, r24	; 0x04
	OLED_INVALIDATE_OBJECT_SIMPLE(me);
    1a70:	e0 91 23 03 	lds	r30, 0x0323
    1a74:	f0 91 24 03 	lds	r31, 0x0324
    1a78:	85 81       	ldd	r24, Z+5	; 0x05
    1a7a:	81 60       	ori	r24, 0x01	; 1
    1a7c:	85 83       	std	Z+5, r24	; 0x05
	
	com = OLED_CREATE_OBJECT(0,0);
    1a7e:	e0 91 73 03 	lds	r30, 0x0373
    1a82:	f0 91 74 03 	lds	r31, 0x0374
    1a86:	f0 93 78 03 	sts	0x0378, r31
    1a8a:	e0 93 77 03 	sts	0x0377, r30
    1a8e:	84 85       	ldd	r24, Z+12	; 0x0c
    1a90:	95 85       	ldd	r25, Z+13	; 0x0d
    1a92:	00 97       	sbiw	r24, 0x00	; 0
    1a94:	29 f4       	brne	.+10     	; 0x1aa0 <CreateObjectsMain+0x148>
    1a96:	10 92 74 03 	sts	0x0374, r1
    1a9a:	10 92 73 03 	sts	0x0373, r1
    1a9e:	0f c0       	rjmp	.+30     	; 0x1abe <CreateObjectsMain+0x166>
    1aa0:	a2 85       	ldd	r26, Z+10	; 0x0a
    1aa2:	b3 85       	ldd	r27, Z+11	; 0x0b
    1aa4:	1d 96       	adiw	r26, 0x0d	; 13
    1aa6:	9c 93       	st	X, r25
    1aa8:	8e 93       	st	-X, r24
    1aaa:	1c 97       	sbiw	r26, 0x0c	; 12
    1aac:	04 84       	ldd	r0, Z+12	; 0x0c
    1aae:	f5 85       	ldd	r31, Z+13	; 0x0d
    1ab0:	e0 2d       	mov	r30, r0
    1ab2:	b3 87       	std	Z+11, r27	; 0x0b
    1ab4:	a2 87       	std	Z+10, r26	; 0x0a
    1ab6:	f0 93 74 03 	sts	0x0374, r31
    1aba:	e0 93 73 03 	sts	0x0373, r30
    1abe:	80 91 81 03 	lds	r24, 0x0381
    1ac2:	90 91 82 03 	lds	r25, 0x0382
    1ac6:	a0 91 77 03 	lds	r26, 0x0377
    1aca:	b0 91 78 03 	lds	r27, 0x0378
    1ace:	00 97       	sbiw	r24, 0x00	; 0
    1ad0:	99 f4       	brne	.+38     	; 0x1af8 <CreateObjectsMain+0x1a0>
    1ad2:	0a 2e       	mov	r0, r26
    1ad4:	1b 2e       	mov	r1, r27
    1ad6:	1b 96       	adiw	r26, 0x0b	; 11
    1ad8:	1c 92       	st	X, r1
    1ada:	0e 92       	st	-X, r0
    1adc:	11 24       	eor	r1, r1
    1ade:	1a 97       	sbiw	r26, 0x0a	; 10
    1ae0:	0a 2e       	mov	r0, r26
    1ae2:	1b 2e       	mov	r1, r27
    1ae4:	1d 96       	adiw	r26, 0x0d	; 13
    1ae6:	1c 92       	st	X, r1
    1ae8:	0e 92       	st	-X, r0
    1aea:	11 24       	eor	r1, r1
    1aec:	1c 97       	sbiw	r26, 0x0c	; 12
    1aee:	b0 93 7a 03 	sts	0x037A, r27
    1af2:	a0 93 79 03 	sts	0x0379, r26
    1af6:	1d c0       	rjmp	.+58     	; 0x1b32 <CreateObjectsMain+0x1da>
    1af8:	1b 96       	adiw	r26, 0x0b	; 11
    1afa:	9c 93       	st	X, r25
    1afc:	8e 93       	st	-X, r24
    1afe:	1a 97       	sbiw	r26, 0x0a	; 10
    1b00:	e0 91 81 03 	lds	r30, 0x0381
    1b04:	f0 91 82 03 	lds	r31, 0x0382
    1b08:	84 85       	ldd	r24, Z+12	; 0x0c
    1b0a:	95 85       	ldd	r25, Z+13	; 0x0d
    1b0c:	1d 96       	adiw	r26, 0x0d	; 13
    1b0e:	9c 93       	st	X, r25
    1b10:	8e 93       	st	-X, r24
    1b12:	1c 97       	sbiw	r26, 0x0c	; 12
    1b14:	e0 91 81 03 	lds	r30, 0x0381
    1b18:	f0 91 82 03 	lds	r31, 0x0382
    1b1c:	04 84       	ldd	r0, Z+12	; 0x0c
    1b1e:	f5 85       	ldd	r31, Z+13	; 0x0d
    1b20:	e0 2d       	mov	r30, r0
    1b22:	b3 87       	std	Z+11, r27	; 0x0b
    1b24:	a2 87       	std	Z+10, r26	; 0x0a
    1b26:	e0 91 81 03 	lds	r30, 0x0381
    1b2a:	f0 91 82 03 	lds	r31, 0x0382
    1b2e:	b5 87       	std	Z+13, r27	; 0x0d
    1b30:	a4 87       	std	Z+12, r26	; 0x0c
    1b32:	e0 91 77 03 	lds	r30, 0x0377
    1b36:	f0 91 78 03 	lds	r31, 0x0378
    1b3a:	f0 93 82 03 	sts	0x0382, r31
    1b3e:	e0 93 81 03 	sts	0x0381, r30
    1b42:	15 82       	std	Z+5, r1	; 0x05
    1b44:	80 91 b1 02 	lds	r24, 0x02B1
    1b48:	81 60       	ori	r24, 0x01	; 1
    1b4a:	80 93 b1 02 	sts	0x02B1, r24
    1b4e:	e0 91 77 03 	lds	r30, 0x0377
    1b52:	f0 91 78 03 	lds	r31, 0x0378
    1b56:	f0 93 3c 03 	sts	0x033C, r31
    1b5a:	e0 93 3b 03 	sts	0x033B, r30
	com->left = 80;
    1b5e:	80 e5       	ldi	r24, 0x50	; 80
    1b60:	81 83       	std	Z+1, r24	; 0x01
	com->idx_bitmap = DANCE_INDEX;
    1b62:	e0 91 3b 03 	lds	r30, 0x033B
    1b66:	f0 91 3c 03 	lds	r31, 0x033C
    1b6a:	81 e0       	ldi	r24, 0x01	; 1
    1b6c:	80 83       	st	Z, r24
	com->right = 111;
    1b6e:	e0 91 3b 03 	lds	r30, 0x033B
    1b72:	f0 91 3c 03 	lds	r31, 0x033C
    1b76:	8f e6       	ldi	r24, 0x6F	; 111
    1b78:	83 83       	std	Z+3, r24	; 0x03
	com->top = 32;
    1b7a:	e0 91 3b 03 	lds	r30, 0x033B
    1b7e:	f0 91 3c 03 	lds	r31, 0x033C
    1b82:	80 e2       	ldi	r24, 0x20	; 32
    1b84:	82 83       	std	Z+2, r24	; 0x02
	com->bottom = 95;
    1b86:	e0 91 3b 03 	lds	r30, 0x033B
    1b8a:	f0 91 3c 03 	lds	r31, 0x033C
    1b8e:	8f e5       	ldi	r24, 0x5F	; 95
    1b90:	84 83       	std	Z+4, r24	; 0x04
	OLED_INVALIDATE_OBJECT_SIMPLE(com);
    1b92:	e0 91 3b 03 	lds	r30, 0x033B
    1b96:	f0 91 3c 03 	lds	r31, 0x033C
    1b9a:	85 81       	ldd	r24, Z+5	; 0x05
    1b9c:	81 60       	ori	r24, 0x01	; 1
    1b9e:	85 83       	std	Z+5, r24	; 0x05


	obj_score = OLED_CREATE_OBJECT(0,0);
    1ba0:	e0 91 73 03 	lds	r30, 0x0373
    1ba4:	f0 91 74 03 	lds	r31, 0x0374
    1ba8:	f0 93 78 03 	sts	0x0378, r31
    1bac:	e0 93 77 03 	sts	0x0377, r30
    1bb0:	84 85       	ldd	r24, Z+12	; 0x0c
    1bb2:	95 85       	ldd	r25, Z+13	; 0x0d
    1bb4:	00 97       	sbiw	r24, 0x00	; 0
    1bb6:	29 f4       	brne	.+10     	; 0x1bc2 <CreateObjectsMain+0x26a>
    1bb8:	10 92 74 03 	sts	0x0374, r1
    1bbc:	10 92 73 03 	sts	0x0373, r1
    1bc0:	0f c0       	rjmp	.+30     	; 0x1be0 <CreateObjectsMain+0x288>
    1bc2:	a2 85       	ldd	r26, Z+10	; 0x0a
    1bc4:	b3 85       	ldd	r27, Z+11	; 0x0b
    1bc6:	1d 96       	adiw	r26, 0x0d	; 13
    1bc8:	9c 93       	st	X, r25
    1bca:	8e 93       	st	-X, r24
    1bcc:	1c 97       	sbiw	r26, 0x0c	; 12
    1bce:	04 84       	ldd	r0, Z+12	; 0x0c
    1bd0:	f5 85       	ldd	r31, Z+13	; 0x0d
    1bd2:	e0 2d       	mov	r30, r0
    1bd4:	b3 87       	std	Z+11, r27	; 0x0b
    1bd6:	a2 87       	std	Z+10, r26	; 0x0a
    1bd8:	f0 93 74 03 	sts	0x0374, r31
    1bdc:	e0 93 73 03 	sts	0x0373, r30
    1be0:	80 91 81 03 	lds	r24, 0x0381
    1be4:	90 91 82 03 	lds	r25, 0x0382
    1be8:	a0 91 77 03 	lds	r26, 0x0377
    1bec:	b0 91 78 03 	lds	r27, 0x0378
    1bf0:	00 97       	sbiw	r24, 0x00	; 0
    1bf2:	99 f4       	brne	.+38     	; 0x1c1a <CreateObjectsMain+0x2c2>
    1bf4:	0a 2e       	mov	r0, r26
    1bf6:	1b 2e       	mov	r1, r27
    1bf8:	1b 96       	adiw	r26, 0x0b	; 11
    1bfa:	1c 92       	st	X, r1
    1bfc:	0e 92       	st	-X, r0
    1bfe:	11 24       	eor	r1, r1
    1c00:	1a 97       	sbiw	r26, 0x0a	; 10
    1c02:	0a 2e       	mov	r0, r26
    1c04:	1b 2e       	mov	r1, r27
    1c06:	1d 96       	adiw	r26, 0x0d	; 13
    1c08:	1c 92       	st	X, r1
    1c0a:	0e 92       	st	-X, r0
    1c0c:	11 24       	eor	r1, r1
    1c0e:	1c 97       	sbiw	r26, 0x0c	; 12
    1c10:	b0 93 7a 03 	sts	0x037A, r27
    1c14:	a0 93 79 03 	sts	0x0379, r26
    1c18:	1d c0       	rjmp	.+58     	; 0x1c54 <CreateObjectsMain+0x2fc>
    1c1a:	1b 96       	adiw	r26, 0x0b	; 11
    1c1c:	9c 93       	st	X, r25
    1c1e:	8e 93       	st	-X, r24
    1c20:	1a 97       	sbiw	r26, 0x0a	; 10
    1c22:	e0 91 81 03 	lds	r30, 0x0381
    1c26:	f0 91 82 03 	lds	r31, 0x0382
    1c2a:	84 85       	ldd	r24, Z+12	; 0x0c
    1c2c:	95 85       	ldd	r25, Z+13	; 0x0d
    1c2e:	1d 96       	adiw	r26, 0x0d	; 13
    1c30:	9c 93       	st	X, r25
    1c32:	8e 93       	st	-X, r24
    1c34:	1c 97       	sbiw	r26, 0x0c	; 12
    1c36:	e0 91 81 03 	lds	r30, 0x0381
    1c3a:	f0 91 82 03 	lds	r31, 0x0382
    1c3e:	04 84       	ldd	r0, Z+12	; 0x0c
    1c40:	f5 85       	ldd	r31, Z+13	; 0x0d
    1c42:	e0 2d       	mov	r30, r0
    1c44:	b3 87       	std	Z+11, r27	; 0x0b
    1c46:	a2 87       	std	Z+10, r26	; 0x0a
    1c48:	e0 91 81 03 	lds	r30, 0x0381
    1c4c:	f0 91 82 03 	lds	r31, 0x0382
    1c50:	b5 87       	std	Z+13, r27	; 0x0d
    1c52:	a4 87       	std	Z+12, r26	; 0x0c
    1c54:	e0 91 77 03 	lds	r30, 0x0377
    1c58:	f0 91 78 03 	lds	r31, 0x0378
    1c5c:	f0 93 82 03 	sts	0x0382, r31
    1c60:	e0 93 81 03 	sts	0x0381, r30
    1c64:	15 82       	std	Z+5, r1	; 0x05
    1c66:	80 91 b1 02 	lds	r24, 0x02B1
    1c6a:	81 60       	ori	r24, 0x01	; 1
    1c6c:	80 93 b1 02 	sts	0x02B1, r24
    1c70:	e0 91 77 03 	lds	r30, 0x0377
    1c74:	f0 91 78 03 	lds	r31, 0x0378
    1c78:	f0 93 5f 03 	sts	0x035F, r31
    1c7c:	e0 93 5e 03 	sts	0x035E, r30
	obj_score->left = 20;
    1c80:	84 e1       	ldi	r24, 0x14	; 20
    1c82:	81 83       	std	Z+1, r24	; 0x01
	obj_score->right = 67;
    1c84:	e0 91 5e 03 	lds	r30, 0x035E
    1c88:	f0 91 5f 03 	lds	r31, 0x035F
    1c8c:	83 e4       	ldi	r24, 0x43	; 67
    1c8e:	83 83       	std	Z+3, r24	; 0x03
	obj_score->top = 16;
    1c90:	e0 91 5e 03 	lds	r30, 0x035E
    1c94:	f0 91 5f 03 	lds	r31, 0x035F
    1c98:	80 e1       	ldi	r24, 0x10	; 16
    1c9a:	82 83       	std	Z+2, r24	; 0x02
	obj_score->bottom = 31;
    1c9c:	e0 91 5e 03 	lds	r30, 0x035E
    1ca0:	f0 91 5f 03 	lds	r31, 0x035F
    1ca4:	8f e1       	ldi	r24, 0x1F	; 31
    1ca6:	84 83       	std	Z+4, r24	; 0x04
	obj_score->idx_bitmap = SCORE_INDEX;
    1ca8:	e0 91 5e 03 	lds	r30, 0x035E
    1cac:	f0 91 5f 03 	lds	r31, 0x035F
    1cb0:	82 e2       	ldi	r24, 0x22	; 34
    1cb2:	80 83       	st	Z, r24
	OLED_INVALIDATE_OBJECT_SIMPLE(obj_score);
    1cb4:	e0 91 5e 03 	lds	r30, 0x035E
    1cb8:	f0 91 5f 03 	lds	r31, 0x035F
    1cbc:	85 81       	ldd	r24, Z+5	; 0x05
    1cbe:	81 60       	ori	r24, 0x01	; 1
    1cc0:	85 83       	std	Z+5, r24	; 0x05
    1cc2:	c1 e5       	ldi	r28, 0x51	; 81
    1cc4:	d3 e0       	ldi	r29, 0x03	; 3
    1cc6:	24 e4       	ldi	r18, 0x44	; 68
	for(i=0;i<5;i++){
		struct OLED_Object* obj=score_num[i] = OLED_CREATE_OBJECT(0,0);
		obj->left = i*8 + 68;
		obj->right = obj->left + 7;
		obj->top = 16;
    1cc8:	50 e1       	ldi	r21, 0x10	; 16
		obj->bottom = 31;
    1cca:	4f e1       	ldi	r20, 0x1F	; 31
		obj->idx_bitmap = NUMBERS_INDEX;
    1ccc:	34 e1       	ldi	r19, 0x14	; 20
	obj_score->top = 16;
	obj_score->bottom = 31;
	obj_score->idx_bitmap = SCORE_INDEX;
	OLED_INVALIDATE_OBJECT_SIMPLE(obj_score);
	for(i=0;i<5;i++){
		struct OLED_Object* obj=score_num[i] = OLED_CREATE_OBJECT(0,0);
    1cce:	e0 91 73 03 	lds	r30, 0x0373
    1cd2:	f0 91 74 03 	lds	r31, 0x0374
    1cd6:	f0 93 78 03 	sts	0x0378, r31
    1cda:	e0 93 77 03 	sts	0x0377, r30
    1cde:	84 85       	ldd	r24, Z+12	; 0x0c
    1ce0:	95 85       	ldd	r25, Z+13	; 0x0d
    1ce2:	00 97       	sbiw	r24, 0x00	; 0
    1ce4:	29 f4       	brne	.+10     	; 0x1cf0 <CreateObjectsMain+0x398>
    1ce6:	10 92 74 03 	sts	0x0374, r1
    1cea:	10 92 73 03 	sts	0x0373, r1
    1cee:	0f c0       	rjmp	.+30     	; 0x1d0e <CreateObjectsMain+0x3b6>
    1cf0:	a2 85       	ldd	r26, Z+10	; 0x0a
    1cf2:	b3 85       	ldd	r27, Z+11	; 0x0b
    1cf4:	1d 96       	adiw	r26, 0x0d	; 13
    1cf6:	9c 93       	st	X, r25
    1cf8:	8e 93       	st	-X, r24
    1cfa:	1c 97       	sbiw	r26, 0x0c	; 12
    1cfc:	04 84       	ldd	r0, Z+12	; 0x0c
    1cfe:	f5 85       	ldd	r31, Z+13	; 0x0d
    1d00:	e0 2d       	mov	r30, r0
    1d02:	b3 87       	std	Z+11, r27	; 0x0b
    1d04:	a2 87       	std	Z+10, r26	; 0x0a
    1d06:	f0 93 74 03 	sts	0x0374, r31
    1d0a:	e0 93 73 03 	sts	0x0373, r30
    1d0e:	80 91 81 03 	lds	r24, 0x0381
    1d12:	90 91 82 03 	lds	r25, 0x0382
    1d16:	a0 91 77 03 	lds	r26, 0x0377
    1d1a:	b0 91 78 03 	lds	r27, 0x0378
    1d1e:	00 97       	sbiw	r24, 0x00	; 0
    1d20:	99 f4       	brne	.+38     	; 0x1d48 <CreateObjectsMain+0x3f0>
    1d22:	0a 2e       	mov	r0, r26
    1d24:	1b 2e       	mov	r1, r27
    1d26:	1b 96       	adiw	r26, 0x0b	; 11
    1d28:	1c 92       	st	X, r1
    1d2a:	0e 92       	st	-X, r0
    1d2c:	11 24       	eor	r1, r1
    1d2e:	1a 97       	sbiw	r26, 0x0a	; 10
    1d30:	0a 2e       	mov	r0, r26
    1d32:	1b 2e       	mov	r1, r27
    1d34:	1d 96       	adiw	r26, 0x0d	; 13
    1d36:	1c 92       	st	X, r1
    1d38:	0e 92       	st	-X, r0
    1d3a:	11 24       	eor	r1, r1
    1d3c:	1c 97       	sbiw	r26, 0x0c	; 12
    1d3e:	b0 93 7a 03 	sts	0x037A, r27
    1d42:	a0 93 79 03 	sts	0x0379, r26
    1d46:	1d c0       	rjmp	.+58     	; 0x1d82 <CreateObjectsMain+0x42a>
    1d48:	1b 96       	adiw	r26, 0x0b	; 11
    1d4a:	9c 93       	st	X, r25
    1d4c:	8e 93       	st	-X, r24
    1d4e:	1a 97       	sbiw	r26, 0x0a	; 10
    1d50:	e0 91 81 03 	lds	r30, 0x0381
    1d54:	f0 91 82 03 	lds	r31, 0x0382
    1d58:	84 85       	ldd	r24, Z+12	; 0x0c
    1d5a:	95 85       	ldd	r25, Z+13	; 0x0d
    1d5c:	1d 96       	adiw	r26, 0x0d	; 13
    1d5e:	9c 93       	st	X, r25
    1d60:	8e 93       	st	-X, r24
    1d62:	1c 97       	sbiw	r26, 0x0c	; 12
    1d64:	e0 91 81 03 	lds	r30, 0x0381
    1d68:	f0 91 82 03 	lds	r31, 0x0382
    1d6c:	04 84       	ldd	r0, Z+12	; 0x0c
    1d6e:	f5 85       	ldd	r31, Z+13	; 0x0d
    1d70:	e0 2d       	mov	r30, r0
    1d72:	b3 87       	std	Z+11, r27	; 0x0b
    1d74:	a2 87       	std	Z+10, r26	; 0x0a
    1d76:	e0 91 81 03 	lds	r30, 0x0381
    1d7a:	f0 91 82 03 	lds	r31, 0x0382
    1d7e:	b5 87       	std	Z+13, r27	; 0x0d
    1d80:	a4 87       	std	Z+12, r26	; 0x0c
    1d82:	e0 91 77 03 	lds	r30, 0x0377
    1d86:	f0 91 78 03 	lds	r31, 0x0378
    1d8a:	f0 93 82 03 	sts	0x0382, r31
    1d8e:	e0 93 81 03 	sts	0x0381, r30
    1d92:	15 82       	std	Z+5, r1	; 0x05
    1d94:	80 91 b1 02 	lds	r24, 0x02B1
    1d98:	81 60       	ori	r24, 0x01	; 1
    1d9a:	80 93 b1 02 	sts	0x02B1, r24
    1d9e:	e0 91 77 03 	lds	r30, 0x0377
    1da2:	f0 91 78 03 	lds	r31, 0x0378
    1da6:	e9 93       	st	Y+, r30
    1da8:	f9 93       	st	Y+, r31
		obj->left = i*8 + 68;
    1daa:	21 83       	std	Z+1, r18	; 0x01
		obj->right = obj->left + 7;
    1dac:	29 5f       	subi	r18, 0xF9	; 249
    1dae:	23 83       	std	Z+3, r18	; 0x03
		obj->top = 16;
    1db0:	52 83       	std	Z+2, r21	; 0x02
		obj->bottom = 31;
    1db2:	44 83       	std	Z+4, r20	; 0x04
		obj->idx_bitmap = NUMBERS_INDEX;
    1db4:	30 83       	st	Z, r19
		OLED_INVALIDATE_OBJECT_SIMPLE(obj);
    1db6:	85 81       	ldd	r24, Z+5	; 0x05
    1db8:	81 60       	ori	r24, 0x01	; 1
    1dba:	85 83       	std	Z+5, r24	; 0x05
    1dbc:	2f 5f       	subi	r18, 0xFF	; 255
	obj_score->right = 67;
	obj_score->top = 16;
	obj_score->bottom = 31;
	obj_score->idx_bitmap = SCORE_INDEX;
	OLED_INVALIDATE_OBJECT_SIMPLE(obj_score);
	for(i=0;i<5;i++){
    1dbe:	2c 36       	cpi	r18, 0x6C	; 108
    1dc0:	09 f0       	breq	.+2      	; 0x1dc4 <CreateObjectsMain+0x46c>
    1dc2:	85 cf       	rjmp	.-246    	; 0x1cce <CreateObjectsMain+0x376>
    1dc4:	c3 e1       	ldi	r28, 0x13	; 19
    1dc6:	d3 e0       	ldi	r29, 0x03	; 3
    1dc8:	20 e0       	ldi	r18, 0x00	; 0
    1dca:	30 e0       	ldi	r19, 0x00	; 0
		obj->idx_bitmap = NUMBERS_INDEX;
		OLED_INVALIDATE_OBJECT_SIMPLE(obj);
	}
	for(i=0;i<8;i++){
		struct OLED_Object* obj = obj_me_musicnotes[i] = OLED_CREATE_OBJECT(0,0);
		obj->left = (i/4)*48;
    1dcc:	40 e3       	ldi	r20, 0x30	; 48
    1dce:	50 e0       	ldi	r21, 0x00	; 0
		obj->bottom = 31;
		obj->idx_bitmap = NUMBERS_INDEX;
		OLED_INVALIDATE_OBJECT_SIMPLE(obj);
	}
	for(i=0;i<8;i++){
		struct OLED_Object* obj = obj_me_musicnotes[i] = OLED_CREATE_OBJECT(0,0);
    1dd0:	e0 91 73 03 	lds	r30, 0x0373
    1dd4:	f0 91 74 03 	lds	r31, 0x0374
    1dd8:	f0 93 78 03 	sts	0x0378, r31
    1ddc:	e0 93 77 03 	sts	0x0377, r30
    1de0:	84 85       	ldd	r24, Z+12	; 0x0c
    1de2:	95 85       	ldd	r25, Z+13	; 0x0d
    1de4:	00 97       	sbiw	r24, 0x00	; 0
    1de6:	29 f4       	brne	.+10     	; 0x1df2 <CreateObjectsMain+0x49a>
    1de8:	10 92 74 03 	sts	0x0374, r1
    1dec:	10 92 73 03 	sts	0x0373, r1
    1df0:	0f c0       	rjmp	.+30     	; 0x1e10 <CreateObjectsMain+0x4b8>
    1df2:	a2 85       	ldd	r26, Z+10	; 0x0a
    1df4:	b3 85       	ldd	r27, Z+11	; 0x0b
    1df6:	1d 96       	adiw	r26, 0x0d	; 13
    1df8:	9c 93       	st	X, r25
    1dfa:	8e 93       	st	-X, r24
    1dfc:	1c 97       	sbiw	r26, 0x0c	; 12
    1dfe:	04 84       	ldd	r0, Z+12	; 0x0c
    1e00:	f5 85       	ldd	r31, Z+13	; 0x0d
    1e02:	e0 2d       	mov	r30, r0
    1e04:	b3 87       	std	Z+11, r27	; 0x0b
    1e06:	a2 87       	std	Z+10, r26	; 0x0a
    1e08:	f0 93 74 03 	sts	0x0374, r31
    1e0c:	e0 93 73 03 	sts	0x0373, r30
    1e10:	80 91 81 03 	lds	r24, 0x0381
    1e14:	90 91 82 03 	lds	r25, 0x0382
    1e18:	a0 91 77 03 	lds	r26, 0x0377
    1e1c:	b0 91 78 03 	lds	r27, 0x0378
    1e20:	00 97       	sbiw	r24, 0x00	; 0
    1e22:	99 f4       	brne	.+38     	; 0x1e4a <CreateObjectsMain+0x4f2>
    1e24:	0a 2e       	mov	r0, r26
    1e26:	1b 2e       	mov	r1, r27
    1e28:	1b 96       	adiw	r26, 0x0b	; 11
    1e2a:	1c 92       	st	X, r1
    1e2c:	0e 92       	st	-X, r0
    1e2e:	11 24       	eor	r1, r1
    1e30:	1a 97       	sbiw	r26, 0x0a	; 10
    1e32:	0a 2e       	mov	r0, r26
    1e34:	1b 2e       	mov	r1, r27
    1e36:	1d 96       	adiw	r26, 0x0d	; 13
    1e38:	1c 92       	st	X, r1
    1e3a:	0e 92       	st	-X, r0
    1e3c:	11 24       	eor	r1, r1
    1e3e:	1c 97       	sbiw	r26, 0x0c	; 12
    1e40:	b0 93 7a 03 	sts	0x037A, r27
    1e44:	a0 93 79 03 	sts	0x0379, r26
    1e48:	1d c0       	rjmp	.+58     	; 0x1e84 <CreateObjectsMain+0x52c>
    1e4a:	1b 96       	adiw	r26, 0x0b	; 11
    1e4c:	9c 93       	st	X, r25
    1e4e:	8e 93       	st	-X, r24
    1e50:	1a 97       	sbiw	r26, 0x0a	; 10
    1e52:	e0 91 81 03 	lds	r30, 0x0381
    1e56:	f0 91 82 03 	lds	r31, 0x0382
    1e5a:	84 85       	ldd	r24, Z+12	; 0x0c
    1e5c:	95 85       	ldd	r25, Z+13	; 0x0d
    1e5e:	1d 96       	adiw	r26, 0x0d	; 13
    1e60:	9c 93       	st	X, r25
    1e62:	8e 93       	st	-X, r24
    1e64:	1c 97       	sbiw	r26, 0x0c	; 12
    1e66:	e0 91 81 03 	lds	r30, 0x0381
    1e6a:	f0 91 82 03 	lds	r31, 0x0382
    1e6e:	04 84       	ldd	r0, Z+12	; 0x0c
    1e70:	f5 85       	ldd	r31, Z+13	; 0x0d
    1e72:	e0 2d       	mov	r30, r0
    1e74:	b3 87       	std	Z+11, r27	; 0x0b
    1e76:	a2 87       	std	Z+10, r26	; 0x0a
    1e78:	e0 91 81 03 	lds	r30, 0x0381
    1e7c:	f0 91 82 03 	lds	r31, 0x0382
    1e80:	b5 87       	std	Z+13, r27	; 0x0d
    1e82:	a4 87       	std	Z+12, r26	; 0x0c
    1e84:	e0 91 77 03 	lds	r30, 0x0377
    1e88:	f0 91 78 03 	lds	r31, 0x0378
    1e8c:	f0 93 82 03 	sts	0x0382, r31
    1e90:	e0 93 81 03 	sts	0x0381, r30
    1e94:	15 82       	std	Z+5, r1	; 0x05
    1e96:	80 91 b1 02 	lds	r24, 0x02B1
    1e9a:	81 60       	ori	r24, 0x01	; 1
    1e9c:	80 93 b1 02 	sts	0x02B1, r24
    1ea0:	e0 91 77 03 	lds	r30, 0x0377
    1ea4:	f0 91 78 03 	lds	r31, 0x0378
    1ea8:	e9 93       	st	Y+, r30
    1eaa:	f9 93       	st	Y+, r31
		obj->left = (i/4)*48;
    1eac:	c9 01       	movw	r24, r18
    1eae:	95 95       	asr	r25
    1eb0:	87 95       	ror	r24
    1eb2:	95 95       	asr	r25
    1eb4:	87 95       	ror	r24
    1eb6:	bc 01       	movw	r22, r24
    1eb8:	64 9f       	mul	r22, r20
    1eba:	c0 01       	movw	r24, r0
    1ebc:	65 9f       	mul	r22, r21
    1ebe:	90 0d       	add	r25, r0
    1ec0:	74 9f       	mul	r23, r20
    1ec2:	90 0d       	add	r25, r0
    1ec4:	11 24       	eor	r1, r1
    1ec6:	81 83       	std	Z+1, r24	; 0x01
		obj->right = obj->left + 15;
    1ec8:	81 5f       	subi	r24, 0xF1	; 241
    1eca:	83 83       	std	Z+3, r24	; 0x03
		obj->top = (i%4)*16 + 32;
    1ecc:	c9 01       	movw	r24, r18
    1ece:	83 70       	andi	r24, 0x03	; 3
    1ed0:	90 70       	andi	r25, 0x00	; 0
    1ed2:	02 96       	adiw	r24, 0x02	; 2
    1ed4:	64 e0       	ldi	r22, 0x04	; 4
    1ed6:	88 0f       	add	r24, r24
    1ed8:	99 1f       	adc	r25, r25
    1eda:	6a 95       	dec	r22
    1edc:	e1 f7       	brne	.-8      	; 0x1ed6 <CreateObjectsMain+0x57e>
    1ede:	82 83       	std	Z+2, r24	; 0x02
		obj->bottom = obj->top + 15;
    1ee0:	81 5f       	subi	r24, 0xF1	; 241
    1ee2:	84 83       	std	Z+4, r24	; 0x04
		obj->idx_bitmap = 0;
    1ee4:	10 82       	st	Z, r1
		OLED_INVALIDATE_OBJECT_SIMPLE(obj);
    1ee6:	85 81       	ldd	r24, Z+5	; 0x05
    1ee8:	81 60       	ori	r24, 0x01	; 1
    1eea:	85 83       	std	Z+5, r24	; 0x05
		obj->top = 16;
		obj->bottom = 31;
		obj->idx_bitmap = NUMBERS_INDEX;
		OLED_INVALIDATE_OBJECT_SIMPLE(obj);
	}
	for(i=0;i<8;i++){
    1eec:	2f 5f       	subi	r18, 0xFF	; 255
    1eee:	3f 4f       	sbci	r19, 0xFF	; 255
    1ef0:	28 30       	cpi	r18, 0x08	; 8
    1ef2:	31 05       	cpc	r19, r1
    1ef4:	09 f0       	breq	.+2      	; 0x1ef8 <CreateObjectsMain+0x5a0>
    1ef6:	6c cf       	rjmp	.-296    	; 0x1dd0 <CreateObjectsMain+0x478>
    1ef8:	cf e3       	ldi	r28, 0x3F	; 63
    1efa:	d3 e0       	ldi	r29, 0x03	; 3
    1efc:	40 e0       	ldi	r20, 0x00	; 0
    1efe:	50 e0       	ldi	r21, 0x00	; 0
		obj->idx_bitmap = 0;
		OLED_INVALIDATE_OBJECT_SIMPLE(obj);
	}
	for(i=0;i<8;i++){
		struct OLED_Object* obj = obj_com_musicnotes[i] = OLED_CREATE_OBJECT(0,0);
		obj->left = (i/4)*48 + 64;
    1f00:	60 e3       	ldi	r22, 0x30	; 48
    1f02:	70 e0       	ldi	r23, 0x00	; 0
		obj->bottom = obj->top + 15;
		obj->idx_bitmap = 0;
		OLED_INVALIDATE_OBJECT_SIMPLE(obj);
	}
	for(i=0;i<8;i++){
		struct OLED_Object* obj = obj_com_musicnotes[i] = OLED_CREATE_OBJECT(0,0);
    1f04:	e0 91 73 03 	lds	r30, 0x0373
    1f08:	f0 91 74 03 	lds	r31, 0x0374
    1f0c:	f0 93 78 03 	sts	0x0378, r31
    1f10:	e0 93 77 03 	sts	0x0377, r30
    1f14:	84 85       	ldd	r24, Z+12	; 0x0c
    1f16:	95 85       	ldd	r25, Z+13	; 0x0d
    1f18:	00 97       	sbiw	r24, 0x00	; 0
    1f1a:	29 f4       	brne	.+10     	; 0x1f26 <CreateObjectsMain+0x5ce>
    1f1c:	10 92 74 03 	sts	0x0374, r1
    1f20:	10 92 73 03 	sts	0x0373, r1
    1f24:	0f c0       	rjmp	.+30     	; 0x1f44 <CreateObjectsMain+0x5ec>
    1f26:	a2 85       	ldd	r26, Z+10	; 0x0a
    1f28:	b3 85       	ldd	r27, Z+11	; 0x0b
    1f2a:	1d 96       	adiw	r26, 0x0d	; 13
    1f2c:	9c 93       	st	X, r25
    1f2e:	8e 93       	st	-X, r24
    1f30:	1c 97       	sbiw	r26, 0x0c	; 12
    1f32:	04 84       	ldd	r0, Z+12	; 0x0c
    1f34:	f5 85       	ldd	r31, Z+13	; 0x0d
    1f36:	e0 2d       	mov	r30, r0
    1f38:	b3 87       	std	Z+11, r27	; 0x0b
    1f3a:	a2 87       	std	Z+10, r26	; 0x0a
    1f3c:	f0 93 74 03 	sts	0x0374, r31
    1f40:	e0 93 73 03 	sts	0x0373, r30
    1f44:	80 91 81 03 	lds	r24, 0x0381
    1f48:	90 91 82 03 	lds	r25, 0x0382
    1f4c:	a0 91 77 03 	lds	r26, 0x0377
    1f50:	b0 91 78 03 	lds	r27, 0x0378
    1f54:	00 97       	sbiw	r24, 0x00	; 0
    1f56:	99 f4       	brne	.+38     	; 0x1f7e <CreateObjectsMain+0x626>
    1f58:	0a 2e       	mov	r0, r26
    1f5a:	1b 2e       	mov	r1, r27
    1f5c:	1b 96       	adiw	r26, 0x0b	; 11
    1f5e:	1c 92       	st	X, r1
    1f60:	0e 92       	st	-X, r0
    1f62:	11 24       	eor	r1, r1
    1f64:	1a 97       	sbiw	r26, 0x0a	; 10
    1f66:	0a 2e       	mov	r0, r26
    1f68:	1b 2e       	mov	r1, r27
    1f6a:	1d 96       	adiw	r26, 0x0d	; 13
    1f6c:	1c 92       	st	X, r1
    1f6e:	0e 92       	st	-X, r0
    1f70:	11 24       	eor	r1, r1
    1f72:	1c 97       	sbiw	r26, 0x0c	; 12
    1f74:	b0 93 7a 03 	sts	0x037A, r27
    1f78:	a0 93 79 03 	sts	0x0379, r26
    1f7c:	1d c0       	rjmp	.+58     	; 0x1fb8 <CreateObjectsMain+0x660>
    1f7e:	1b 96       	adiw	r26, 0x0b	; 11
    1f80:	9c 93       	st	X, r25
    1f82:	8e 93       	st	-X, r24
    1f84:	1a 97       	sbiw	r26, 0x0a	; 10
    1f86:	e0 91 81 03 	lds	r30, 0x0381
    1f8a:	f0 91 82 03 	lds	r31, 0x0382
    1f8e:	84 85       	ldd	r24, Z+12	; 0x0c
    1f90:	95 85       	ldd	r25, Z+13	; 0x0d
    1f92:	1d 96       	adiw	r26, 0x0d	; 13
    1f94:	9c 93       	st	X, r25
    1f96:	8e 93       	st	-X, r24
    1f98:	1c 97       	sbiw	r26, 0x0c	; 12
    1f9a:	e0 91 81 03 	lds	r30, 0x0381
    1f9e:	f0 91 82 03 	lds	r31, 0x0382
    1fa2:	04 84       	ldd	r0, Z+12	; 0x0c
    1fa4:	f5 85       	ldd	r31, Z+13	; 0x0d
    1fa6:	e0 2d       	mov	r30, r0
    1fa8:	b3 87       	std	Z+11, r27	; 0x0b
    1faa:	a2 87       	std	Z+10, r26	; 0x0a
    1fac:	e0 91 81 03 	lds	r30, 0x0381
    1fb0:	f0 91 82 03 	lds	r31, 0x0382
    1fb4:	b5 87       	std	Z+13, r27	; 0x0d
    1fb6:	a4 87       	std	Z+12, r26	; 0x0c
    1fb8:	e0 91 77 03 	lds	r30, 0x0377
    1fbc:	f0 91 78 03 	lds	r31, 0x0378
    1fc0:	f0 93 82 03 	sts	0x0382, r31
    1fc4:	e0 93 81 03 	sts	0x0381, r30
    1fc8:	15 82       	std	Z+5, r1	; 0x05
    1fca:	80 91 b1 02 	lds	r24, 0x02B1
    1fce:	81 60       	ori	r24, 0x01	; 1
    1fd0:	80 93 b1 02 	sts	0x02B1, r24
    1fd4:	e0 91 77 03 	lds	r30, 0x0377
    1fd8:	f0 91 78 03 	lds	r31, 0x0378
    1fdc:	e9 93       	st	Y+, r30
    1fde:	f9 93       	st	Y+, r31
		obj->left = (i/4)*48 + 64;
    1fe0:	ca 01       	movw	r24, r20
    1fe2:	95 95       	asr	r25
    1fe4:	87 95       	ror	r24
    1fe6:	95 95       	asr	r25
    1fe8:	87 95       	ror	r24
    1fea:	9c 01       	movw	r18, r24
    1fec:	26 9f       	mul	r18, r22
    1fee:	c0 01       	movw	r24, r0
    1ff0:	27 9f       	mul	r18, r23
    1ff2:	90 0d       	add	r25, r0
    1ff4:	36 9f       	mul	r19, r22
    1ff6:	90 0d       	add	r25, r0
    1ff8:	11 24       	eor	r1, r1
    1ffa:	28 2f       	mov	r18, r24
    1ffc:	20 5c       	subi	r18, 0xC0	; 192
    1ffe:	21 83       	std	Z+1, r18	; 0x01
		obj->right = obj->left + 15;
    2000:	81 5b       	subi	r24, 0xB1	; 177
    2002:	83 83       	std	Z+3, r24	; 0x03
		obj->top = (i%4)*16 + 32;
    2004:	ca 01       	movw	r24, r20
    2006:	83 70       	andi	r24, 0x03	; 3
    2008:	90 70       	andi	r25, 0x00	; 0
    200a:	02 96       	adiw	r24, 0x02	; 2
    200c:	24 e0       	ldi	r18, 0x04	; 4
    200e:	88 0f       	add	r24, r24
    2010:	99 1f       	adc	r25, r25
    2012:	2a 95       	dec	r18
    2014:	e1 f7       	brne	.-8      	; 0x200e <CreateObjectsMain+0x6b6>
    2016:	82 83       	std	Z+2, r24	; 0x02
		obj->bottom = obj->top + 15;
    2018:	81 5f       	subi	r24, 0xF1	; 241
    201a:	84 83       	std	Z+4, r24	; 0x04
		obj->idx_bitmap = 0;
    201c:	10 82       	st	Z, r1
		OLED_INVALIDATE_OBJECT_SIMPLE(obj);
    201e:	85 81       	ldd	r24, Z+5	; 0x05
    2020:	81 60       	ori	r24, 0x01	; 1
    2022:	85 83       	std	Z+5, r24	; 0x05
		obj->top = (i%4)*16 + 32;
		obj->bottom = obj->top + 15;
		obj->idx_bitmap = 0;
		OLED_INVALIDATE_OBJECT_SIMPLE(obj);
	}
	for(i=0;i<8;i++){
    2024:	4f 5f       	subi	r20, 0xFF	; 255
    2026:	5f 4f       	sbci	r21, 0xFF	; 255
    2028:	48 30       	cpi	r20, 0x08	; 8
    202a:	51 05       	cpc	r21, r1
    202c:	09 f0       	breq	.+2      	; 0x2030 <CreateObjectsMain+0x6d8>
    202e:	6a cf       	rjmp	.-300    	; 0x1f04 <CreateObjectsMain+0x5ac>
		obj->top = (i%4)*16 + 32;
		obj->bottom = obj->top + 15;
		obj->idx_bitmap = 0;
		OLED_INVALIDATE_OBJECT_SIMPLE(obj);
	}
	effect = OLED_CREATE_OBJECT(0,0);
    2030:	e0 91 73 03 	lds	r30, 0x0373
    2034:	f0 91 74 03 	lds	r31, 0x0374
    2038:	f0 93 78 03 	sts	0x0378, r31
    203c:	e0 93 77 03 	sts	0x0377, r30
    2040:	84 85       	ldd	r24, Z+12	; 0x0c
    2042:	95 85       	ldd	r25, Z+13	; 0x0d
    2044:	00 97       	sbiw	r24, 0x00	; 0
    2046:	29 f4       	brne	.+10     	; 0x2052 <CreateObjectsMain+0x6fa>
    2048:	10 92 74 03 	sts	0x0374, r1
    204c:	10 92 73 03 	sts	0x0373, r1
    2050:	0f c0       	rjmp	.+30     	; 0x2070 <CreateObjectsMain+0x718>
    2052:	a2 85       	ldd	r26, Z+10	; 0x0a
    2054:	b3 85       	ldd	r27, Z+11	; 0x0b
    2056:	1d 96       	adiw	r26, 0x0d	; 13
    2058:	9c 93       	st	X, r25
    205a:	8e 93       	st	-X, r24
    205c:	1c 97       	sbiw	r26, 0x0c	; 12
    205e:	04 84       	ldd	r0, Z+12	; 0x0c
    2060:	f5 85       	ldd	r31, Z+13	; 0x0d
    2062:	e0 2d       	mov	r30, r0
    2064:	b3 87       	std	Z+11, r27	; 0x0b
    2066:	a2 87       	std	Z+10, r26	; 0x0a
    2068:	f0 93 74 03 	sts	0x0374, r31
    206c:	e0 93 73 03 	sts	0x0373, r30
    2070:	80 91 81 03 	lds	r24, 0x0381
    2074:	90 91 82 03 	lds	r25, 0x0382
    2078:	a0 91 77 03 	lds	r26, 0x0377
    207c:	b0 91 78 03 	lds	r27, 0x0378
    2080:	00 97       	sbiw	r24, 0x00	; 0
    2082:	99 f4       	brne	.+38     	; 0x20aa <CreateObjectsMain+0x752>
    2084:	0a 2e       	mov	r0, r26
    2086:	1b 2e       	mov	r1, r27
    2088:	1b 96       	adiw	r26, 0x0b	; 11
    208a:	1c 92       	st	X, r1
    208c:	0e 92       	st	-X, r0
    208e:	11 24       	eor	r1, r1
    2090:	1a 97       	sbiw	r26, 0x0a	; 10
    2092:	0a 2e       	mov	r0, r26
    2094:	1b 2e       	mov	r1, r27
    2096:	1d 96       	adiw	r26, 0x0d	; 13
    2098:	1c 92       	st	X, r1
    209a:	0e 92       	st	-X, r0
    209c:	11 24       	eor	r1, r1
    209e:	1c 97       	sbiw	r26, 0x0c	; 12
    20a0:	b0 93 7a 03 	sts	0x037A, r27
    20a4:	a0 93 79 03 	sts	0x0379, r26
    20a8:	1d c0       	rjmp	.+58     	; 0x20e4 <CreateObjectsMain+0x78c>
    20aa:	1b 96       	adiw	r26, 0x0b	; 11
    20ac:	9c 93       	st	X, r25
    20ae:	8e 93       	st	-X, r24
    20b0:	1a 97       	sbiw	r26, 0x0a	; 10
    20b2:	e0 91 81 03 	lds	r30, 0x0381
    20b6:	f0 91 82 03 	lds	r31, 0x0382
    20ba:	84 85       	ldd	r24, Z+12	; 0x0c
    20bc:	95 85       	ldd	r25, Z+13	; 0x0d
    20be:	1d 96       	adiw	r26, 0x0d	; 13
    20c0:	9c 93       	st	X, r25
    20c2:	8e 93       	st	-X, r24
    20c4:	1c 97       	sbiw	r26, 0x0c	; 12
    20c6:	e0 91 81 03 	lds	r30, 0x0381
    20ca:	f0 91 82 03 	lds	r31, 0x0382
    20ce:	04 84       	ldd	r0, Z+12	; 0x0c
    20d0:	f5 85       	ldd	r31, Z+13	; 0x0d
    20d2:	e0 2d       	mov	r30, r0
    20d4:	b3 87       	std	Z+11, r27	; 0x0b
    20d6:	a2 87       	std	Z+10, r26	; 0x0a
    20d8:	e0 91 81 03 	lds	r30, 0x0381
    20dc:	f0 91 82 03 	lds	r31, 0x0382
    20e0:	b5 87       	std	Z+13, r27	; 0x0d
    20e2:	a4 87       	std	Z+12, r26	; 0x0c
    20e4:	e0 91 77 03 	lds	r30, 0x0377
    20e8:	f0 91 78 03 	lds	r31, 0x0378
    20ec:	f0 93 82 03 	sts	0x0382, r31
    20f0:	e0 93 81 03 	sts	0x0381, r30
    20f4:	15 82       	std	Z+5, r1	; 0x05
    20f6:	80 91 b1 02 	lds	r24, 0x02B1
    20fa:	81 60       	ori	r24, 0x01	; 1
    20fc:	80 93 b1 02 	sts	0x02B1, r24
    2100:	e0 91 77 03 	lds	r30, 0x0377
    2104:	f0 91 78 03 	lds	r31, 0x0378
    2108:	f0 93 39 03 	sts	0x0339, r31
    210c:	e0 93 38 03 	sts	0x0338, r30
	effect->idx_bitmap = 0;
    2110:	10 82       	st	Z, r1
	effect->left = 32;
    2112:	e0 91 38 03 	lds	r30, 0x0338
    2116:	f0 91 39 03 	lds	r31, 0x0339
    211a:	80 e2       	ldi	r24, 0x20	; 32
    211c:	81 83       	std	Z+1, r24	; 0x01
	effect->right = 95;
    211e:	e0 91 38 03 	lds	r30, 0x0338
    2122:	f0 91 39 03 	lds	r31, 0x0339
    2126:	8f e5       	ldi	r24, 0x5F	; 95
    2128:	83 83       	std	Z+3, r24	; 0x03
	effect->top = 96;
    212a:	e0 91 38 03 	lds	r30, 0x0338
    212e:	f0 91 39 03 	lds	r31, 0x0339
    2132:	80 e6       	ldi	r24, 0x60	; 96
    2134:	82 83       	std	Z+2, r24	; 0x02
	effect->bottom = 127;
    2136:	e0 91 38 03 	lds	r30, 0x0338
    213a:	f0 91 39 03 	lds	r31, 0x0339
    213e:	8f e7       	ldi	r24, 0x7F	; 127
    2140:	84 83       	std	Z+4, r24	; 0x04
	OLED_INVALIDATE_OBJECT_SIMPLE(effect);
    2142:	e0 91 38 03 	lds	r30, 0x0338
    2146:	f0 91 39 03 	lds	r31, 0x0339
    214a:	85 81       	ldd	r24, Z+5	; 0x05
    214c:	81 60       	ori	r24, 0x01	; 1
    214e:	85 83       	std	Z+5, r24	; 0x05
	createHearts();
    2150:	0e 94 01 0c 	call	0x1802	; 0x1802 <createHearts>

	OLED_INVALIDATE();
    2154:	80 91 b1 02 	lds	r24, 0x02B1
    2158:	82 60       	ori	r24, 0x02	; 2
    215a:	80 93 b1 02 	sts	0x02B1, r24
}
    215e:	df 91       	pop	r29
    2160:	cf 91       	pop	r28
    2162:	08 95       	ret

00002164 <doeffect>:
	nstate = GAME_DANCE;
	nstate2 = 0;

	next_computer_dance_frame = AFTER(SECOND(1));
}
void doeffect(unsigned char idx){
    2164:	cf 92       	push	r12
    2166:	df 92       	push	r13
    2168:	ef 92       	push	r14
    216a:	ff 92       	push	r15
    216c:	0f 93       	push	r16
    216e:	1f 93       	push	r17
    2170:	18 2f       	mov	r17, r24
	effect->idx_bitmap = EFFECT_INDEX + idx;
    2172:	e0 91 38 03 	lds	r30, 0x0338
    2176:	f0 91 39 03 	lds	r31, 0x0339
    217a:	16 5f       	subi	r17, 0xF6	; 246
    217c:	10 83       	st	Z, r17
    217e:	1a 50       	subi	r17, 0x0A	; 10
	OLED_INVALIDATE_OBJECT_SIMPLE(effect);
    2180:	85 81       	ldd	r24, Z+5	; 0x05
    2182:	81 60       	ori	r24, 0x01	; 1
    2184:	85 83       	std	Z+5, r24	; 0x05
	OLED_INVALIDATE();
    2186:	80 91 b1 02 	lds	r24, 0x02B1
    218a:	82 60       	ori	r24, 0x02	; 2
    218c:	80 93 b1 02 	sts	0x02B1, r24
	effect_timer = AFTER(SECOND(1));
    2190:	80 91 e6 06 	lds	r24, 0x06E6
    2194:	90 91 e7 06 	lds	r25, 0x06E7
    2198:	cc 96       	adiw	r24, 0x3c	; 60
    219a:	90 93 10 03 	sts	0x0310, r25
    219e:	80 93 0f 03 	sts	0x030F, r24
	if(idx >= 4){
    21a2:	14 30       	cpi	r17, 0x04	; 4
    21a4:	20 f1       	brcs	.+72     	; 0x21ee <doeffect+0x8a>
		hearts_count--;
    21a6:	80 91 66 02 	lds	r24, 0x0266
    21aa:	81 50       	subi	r24, 0x01	; 1
    21ac:	80 93 66 02 	sts	0x0266, r24
		if(hearts_count == 0){
    21b0:	88 23       	and	r24, r24
    21b2:	31 f4       	brne	.+12     	; 0x21c0 <doeffect+0x5c>
			nstate = GAME_SCORE_ANIMATION;
    21b4:	85 e0       	ldi	r24, 0x05	; 5
    21b6:	80 93 f4 02 	sts	0x02F4, r24
			nstate2 = 0;
    21ba:	10 92 f5 02 	sts	0x02F5, r1
    21be:	38 c1       	rjmp	.+624    	; 0x2430 <doeffect+0x2cc>
			return ;
		}
		refreshHearts();
    21c0:	0e 94 7a 0c 	call	0x18f4	; 0x18f4 <refreshHearts>
		combo = 0;
    21c4:	10 92 ff 02 	sts	0x02FF, r1
    21c8:	10 92 fe 02 	sts	0x02FE, r1
		COMBO_REFRESH();
    21cc:	90 e3       	ldi	r25, 0x30	; 48
    21ce:	90 93 a8 02 	sts	0x02A8, r25
    21d2:	81 e3       	ldi	r24, 0x31	; 49
    21d4:	80 93 a9 02 	sts	0x02A9, r24
    21d8:	90 93 8b 02 	sts	0x028B, r25
    21dc:	90 93 8c 02 	sts	0x028C, r25
    21e0:	90 93 8d 02 	sts	0x028D, r25
    21e4:	90 93 8e 02 	sts	0x028E, r25
    21e8:	90 93 8f 02 	sts	0x028F, r25
    21ec:	66 c0       	rjmp	.+204    	; 0x22ba <doeffect+0x156>
	} else {
		if(idx == 1){
    21ee:	11 30       	cpi	r17, 0x01	; 1
    21f0:	61 f4       	brne	.+24     	; 0x220a <doeffect+0xa6>
			hearts_count ++ ;
    21f2:	80 91 66 02 	lds	r24, 0x0266
    21f6:	8f 5f       	subi	r24, 0xFF	; 255
    21f8:	80 93 66 02 	sts	0x0266, r24
			if(hearts_count> MAX_HEART) hearts_count = MAX_HEART;
    21fc:	89 30       	cpi	r24, 0x09	; 9
    21fe:	18 f0       	brcs	.+6      	; 0x2206 <doeffect+0xa2>
    2200:	88 e0       	ldi	r24, 0x08	; 8
    2202:	80 93 66 02 	sts	0x0266, r24
			refreshHearts();
    2206:	0e 94 7a 0c 	call	0x18f4	; 0x18f4 <refreshHearts>
		}
		combo++;
    220a:	e0 91 fe 02 	lds	r30, 0x02FE
    220e:	f0 91 ff 02 	lds	r31, 0x02FF
    2212:	31 96       	adiw	r30, 0x01	; 1
    2214:	f0 93 ff 02 	sts	0x02FF, r31
    2218:	e0 93 fe 02 	sts	0x02FE, r30
		COMBO_REFRESH();
    221c:	cf 01       	movw	r24, r30
    221e:	65 e0       	ldi	r22, 0x05	; 5
    2220:	70 e0       	ldi	r23, 0x00	; 0
    2222:	0e 94 25 2c 	call	0x584a	; 0x584a <__udivmodhi4>
    2226:	9b 01       	movw	r18, r22
    2228:	2f 5f       	subi	r18, 0xFF	; 255
    222a:	3f 4f       	sbci	r19, 0xFF	; 255
    222c:	c9 01       	movw	r24, r18
    222e:	6a e0       	ldi	r22, 0x0A	; 10
    2230:	70 e0       	ldi	r23, 0x00	; 0
    2232:	0e 94 25 2c 	call	0x584a	; 0x584a <__udivmodhi4>
    2236:	60 5d       	subi	r22, 0xD0	; 208
    2238:	60 93 a8 02 	sts	0x02A8, r22
    223c:	c9 01       	movw	r24, r18
    223e:	6a e0       	ldi	r22, 0x0A	; 10
    2240:	70 e0       	ldi	r23, 0x00	; 0
    2242:	0e 94 25 2c 	call	0x584a	; 0x584a <__udivmodhi4>
    2246:	80 5d       	subi	r24, 0xD0	; 208
    2248:	80 93 a9 02 	sts	0x02A9, r24
    224c:	cf 01       	movw	r24, r30
    224e:	60 e1       	ldi	r22, 0x10	; 16
    2250:	77 e2       	ldi	r23, 0x27	; 39
    2252:	0e 94 25 2c 	call	0x584a	; 0x584a <__udivmodhi4>
    2256:	60 5d       	subi	r22, 0xD0	; 208
    2258:	60 93 8b 02 	sts	0x028B, r22
    225c:	cf 01       	movw	r24, r30
    225e:	68 ee       	ldi	r22, 0xE8	; 232
    2260:	73 e0       	ldi	r23, 0x03	; 3
    2262:	0e 94 25 2c 	call	0x584a	; 0x584a <__udivmodhi4>
    2266:	cb 01       	movw	r24, r22
    2268:	6a e0       	ldi	r22, 0x0A	; 10
    226a:	70 e0       	ldi	r23, 0x00	; 0
    226c:	0e 94 25 2c 	call	0x584a	; 0x584a <__udivmodhi4>
    2270:	80 5d       	subi	r24, 0xD0	; 208
    2272:	80 93 8c 02 	sts	0x028C, r24
    2276:	cf 01       	movw	r24, r30
    2278:	64 e6       	ldi	r22, 0x64	; 100
    227a:	70 e0       	ldi	r23, 0x00	; 0
    227c:	0e 94 25 2c 	call	0x584a	; 0x584a <__udivmodhi4>
    2280:	cb 01       	movw	r24, r22
    2282:	6a e0       	ldi	r22, 0x0A	; 10
    2284:	70 e0       	ldi	r23, 0x00	; 0
    2286:	0e 94 25 2c 	call	0x584a	; 0x584a <__udivmodhi4>
    228a:	80 5d       	subi	r24, 0xD0	; 208
    228c:	80 93 8d 02 	sts	0x028D, r24
    2290:	cf 01       	movw	r24, r30
    2292:	6a e0       	ldi	r22, 0x0A	; 10
    2294:	70 e0       	ldi	r23, 0x00	; 0
    2296:	0e 94 25 2c 	call	0x584a	; 0x584a <__udivmodhi4>
    229a:	cb 01       	movw	r24, r22
    229c:	6a e0       	ldi	r22, 0x0A	; 10
    229e:	70 e0       	ldi	r23, 0x00	; 0
    22a0:	0e 94 25 2c 	call	0x584a	; 0x584a <__udivmodhi4>
    22a4:	80 5d       	subi	r24, 0xD0	; 208
    22a6:	80 93 8e 02 	sts	0x028E, r24
    22aa:	cf 01       	movw	r24, r30
    22ac:	6a e0       	ldi	r22, 0x0A	; 10
    22ae:	70 e0       	ldi	r23, 0x00	; 0
    22b0:	0e 94 25 2c 	call	0x584a	; 0x584a <__udivmodhi4>
    22b4:	80 5d       	subi	r24, 0xD0	; 208
    22b6:	80 93 8f 02 	sts	0x028F, r24

	}
	score += def_scores[idx] * (combo/5 + 1);
    22ba:	e1 2f       	mov	r30, r17
    22bc:	f0 e0       	ldi	r31, 0x00	; 0
    22be:	ef 59       	subi	r30, 0x9F	; 159
    22c0:	fd 4f       	sbci	r31, 0xFD	; 253
    22c2:	20 81       	ld	r18, Z
    22c4:	30 e0       	ldi	r19, 0x00	; 0
    22c6:	80 91 fe 02 	lds	r24, 0x02FE
    22ca:	90 91 ff 02 	lds	r25, 0x02FF
    22ce:	65 e0       	ldi	r22, 0x05	; 5
    22d0:	70 e0       	ldi	r23, 0x00	; 0
    22d2:	0e 94 25 2c 	call	0x584a	; 0x584a <__udivmodhi4>
    22d6:	6f 5f       	subi	r22, 0xFF	; 255
    22d8:	7f 4f       	sbci	r23, 0xFF	; 255
    22da:	26 9f       	mul	r18, r22
    22dc:	70 01       	movw	r14, r0
    22de:	27 9f       	mul	r18, r23
    22e0:	f0 0c       	add	r15, r0
    22e2:	36 9f       	mul	r19, r22
    22e4:	f0 0c       	add	r15, r0
    22e6:	11 24       	eor	r1, r1
    22e8:	00 e0       	ldi	r16, 0x00	; 0
    22ea:	10 e0       	ldi	r17, 0x00	; 0
    22ec:	80 91 fa 02 	lds	r24, 0x02FA
    22f0:	90 91 fb 02 	lds	r25, 0x02FB
    22f4:	a0 91 fc 02 	lds	r26, 0x02FC
    22f8:	b0 91 fd 02 	lds	r27, 0x02FD
    22fc:	e8 0e       	add	r14, r24
    22fe:	f9 1e       	adc	r15, r25
    2300:	0a 1f       	adc	r16, r26
    2302:	1b 1f       	adc	r17, r27
    2304:	e0 92 fa 02 	sts	0x02FA, r14
    2308:	f0 92 fb 02 	sts	0x02FB, r15
    230c:	00 93 fc 02 	sts	0x02FC, r16
    2310:	10 93 fd 02 	sts	0x02FD, r17
	SCORE_REFRESH();
    2314:	c0 90 51 03 	lds	r12, 0x0351
    2318:	d0 90 52 03 	lds	r13, 0x0352
    231c:	c8 01       	movw	r24, r16
    231e:	b7 01       	movw	r22, r14
    2320:	20 e1       	ldi	r18, 0x10	; 16
    2322:	37 e2       	ldi	r19, 0x27	; 39
    2324:	40 e0       	ldi	r20, 0x00	; 0
    2326:	50 e0       	ldi	r21, 0x00	; 0
    2328:	0e 94 4c 2c 	call	0x5898	; 0x5898 <__udivmodsi4>
    232c:	2c 5e       	subi	r18, 0xEC	; 236
    232e:	f6 01       	movw	r30, r12
    2330:	20 83       	st	Z, r18
    2332:	c0 90 53 03 	lds	r12, 0x0353
    2336:	d0 90 54 03 	lds	r13, 0x0354
    233a:	c8 01       	movw	r24, r16
    233c:	b7 01       	movw	r22, r14
    233e:	28 ee       	ldi	r18, 0xE8	; 232
    2340:	33 e0       	ldi	r19, 0x03	; 3
    2342:	40 e0       	ldi	r20, 0x00	; 0
    2344:	50 e0       	ldi	r21, 0x00	; 0
    2346:	0e 94 4c 2c 	call	0x5898	; 0x5898 <__udivmodsi4>
    234a:	ca 01       	movw	r24, r20
    234c:	b9 01       	movw	r22, r18
    234e:	2a e0       	ldi	r18, 0x0A	; 10
    2350:	30 e0       	ldi	r19, 0x00	; 0
    2352:	40 e0       	ldi	r20, 0x00	; 0
    2354:	50 e0       	ldi	r21, 0x00	; 0
    2356:	0e 94 4c 2c 	call	0x5898	; 0x5898 <__udivmodsi4>
    235a:	6c 5e       	subi	r22, 0xEC	; 236
    235c:	f6 01       	movw	r30, r12
    235e:	60 83       	st	Z, r22
    2360:	c0 90 55 03 	lds	r12, 0x0355
    2364:	d0 90 56 03 	lds	r13, 0x0356
    2368:	c8 01       	movw	r24, r16
    236a:	b7 01       	movw	r22, r14
    236c:	24 e6       	ldi	r18, 0x64	; 100
    236e:	30 e0       	ldi	r19, 0x00	; 0
    2370:	40 e0       	ldi	r20, 0x00	; 0
    2372:	50 e0       	ldi	r21, 0x00	; 0
    2374:	0e 94 4c 2c 	call	0x5898	; 0x5898 <__udivmodsi4>
    2378:	ca 01       	movw	r24, r20
    237a:	b9 01       	movw	r22, r18
    237c:	2a e0       	ldi	r18, 0x0A	; 10
    237e:	30 e0       	ldi	r19, 0x00	; 0
    2380:	40 e0       	ldi	r20, 0x00	; 0
    2382:	50 e0       	ldi	r21, 0x00	; 0
    2384:	0e 94 4c 2c 	call	0x5898	; 0x5898 <__udivmodsi4>
    2388:	6c 5e       	subi	r22, 0xEC	; 236
    238a:	f6 01       	movw	r30, r12
    238c:	60 83       	st	Z, r22
    238e:	c0 90 57 03 	lds	r12, 0x0357
    2392:	d0 90 58 03 	lds	r13, 0x0358
    2396:	c8 01       	movw	r24, r16
    2398:	b7 01       	movw	r22, r14
    239a:	2a e0       	ldi	r18, 0x0A	; 10
    239c:	30 e0       	ldi	r19, 0x00	; 0
    239e:	40 e0       	ldi	r20, 0x00	; 0
    23a0:	50 e0       	ldi	r21, 0x00	; 0
    23a2:	0e 94 4c 2c 	call	0x5898	; 0x5898 <__udivmodsi4>
    23a6:	ca 01       	movw	r24, r20
    23a8:	b9 01       	movw	r22, r18
    23aa:	2a e0       	ldi	r18, 0x0A	; 10
    23ac:	30 e0       	ldi	r19, 0x00	; 0
    23ae:	40 e0       	ldi	r20, 0x00	; 0
    23b0:	50 e0       	ldi	r21, 0x00	; 0
    23b2:	0e 94 4c 2c 	call	0x5898	; 0x5898 <__udivmodsi4>
    23b6:	6c 5e       	subi	r22, 0xEC	; 236
    23b8:	f6 01       	movw	r30, r12
    23ba:	60 83       	st	Z, r22
    23bc:	c0 90 59 03 	lds	r12, 0x0359
    23c0:	d0 90 5a 03 	lds	r13, 0x035A
    23c4:	c8 01       	movw	r24, r16
    23c6:	b7 01       	movw	r22, r14
    23c8:	2a e0       	ldi	r18, 0x0A	; 10
    23ca:	30 e0       	ldi	r19, 0x00	; 0
    23cc:	40 e0       	ldi	r20, 0x00	; 0
    23ce:	50 e0       	ldi	r21, 0x00	; 0
    23d0:	0e 94 4c 2c 	call	0x5898	; 0x5898 <__udivmodsi4>
    23d4:	6c 5e       	subi	r22, 0xEC	; 236
    23d6:	f6 01       	movw	r30, r12
    23d8:	60 83       	st	Z, r22
    23da:	e0 91 51 03 	lds	r30, 0x0351
    23de:	f0 91 52 03 	lds	r31, 0x0352
    23e2:	85 81       	ldd	r24, Z+5	; 0x05
    23e4:	81 60       	ori	r24, 0x01	; 1
    23e6:	85 83       	std	Z+5, r24	; 0x05
    23e8:	e0 91 53 03 	lds	r30, 0x0353
    23ec:	f0 91 54 03 	lds	r31, 0x0354
    23f0:	85 81       	ldd	r24, Z+5	; 0x05
    23f2:	81 60       	ori	r24, 0x01	; 1
    23f4:	85 83       	std	Z+5, r24	; 0x05
    23f6:	e0 91 55 03 	lds	r30, 0x0355
    23fa:	f0 91 56 03 	lds	r31, 0x0356
    23fe:	85 81       	ldd	r24, Z+5	; 0x05
    2400:	81 60       	ori	r24, 0x01	; 1
    2402:	85 83       	std	Z+5, r24	; 0x05
    2404:	e0 91 57 03 	lds	r30, 0x0357
    2408:	f0 91 58 03 	lds	r31, 0x0358
    240c:	85 81       	ldd	r24, Z+5	; 0x05
    240e:	81 60       	ori	r24, 0x01	; 1
    2410:	85 83       	std	Z+5, r24	; 0x05
    2412:	e0 91 59 03 	lds	r30, 0x0359
    2416:	f0 91 5a 03 	lds	r31, 0x035A
    241a:	85 81       	ldd	r24, Z+5	; 0x05
    241c:	81 60       	ori	r24, 0x01	; 1
    241e:	85 83       	std	Z+5, r24	; 0x05
    2420:	80 91 b1 02 	lds	r24, 0x02B1
    2424:	82 60       	ori	r24, 0x02	; 2
    2426:	80 93 b1 02 	sts	0x02B1, r24
	judged = 1;
    242a:	81 e0       	ldi	r24, 0x01	; 1
    242c:	80 93 3a 03 	sts	0x033A, r24
}
    2430:	1f 91       	pop	r17
    2432:	0f 91       	pop	r16
    2434:	ff 90       	pop	r15
    2436:	ef 90       	pop	r14
    2438:	df 90       	pop	r13
    243a:	cf 90       	pop	r12
    243c:	08 95       	ret

0000243e <clearLCD>:
		}
		judged = 0;
	}
}
void clearLCD(char line,char pos,char len){
	unsigned char* buffer = buffer_LCD+(line*16+pos);
    243e:	e8 2f       	mov	r30, r24
    2440:	f0 e0       	ldi	r31, 0x00	; 0
    2442:	a4 e0       	ldi	r26, 0x04	; 4
    2444:	ee 0f       	add	r30, r30
    2446:	ff 1f       	adc	r31, r31
    2448:	aa 95       	dec	r26
    244a:	e1 f7       	brne	.-8      	; 0x2444 <clearLCD+0x6>
    244c:	e6 0f       	add	r30, r22
    244e:	f1 1d       	adc	r31, r1
    2450:	e5 57       	subi	r30, 0x75	; 117
    2452:	fd 4f       	sbci	r31, 0xFD	; 253
	while(len--) *(buffer++) = ' ';
    2454:	80 e2       	ldi	r24, 0x20	; 32
    2456:	02 c0       	rjmp	.+4      	; 0x245c <clearLCD+0x1e>
    2458:	81 93       	st	Z+, r24
    245a:	41 50       	subi	r20, 0x01	; 1
    245c:	44 23       	and	r20, r20
    245e:	e1 f7       	brne	.-8      	; 0x2458 <clearLCD+0x1a>
}
    2460:	08 95       	ret

00002462 <game_over>:

void game_over(){
    2462:	1f 93       	push	r17
    2464:	cf 93       	push	r28
    2466:	df 93       	push	r29

	struct OLED_Object *obj;
	if(nstate2==0){
    2468:	80 91 f5 02 	lds	r24, 0x02F5
    246c:	88 23       	and	r24, r24
    246e:	09 f0       	breq	.+2      	; 0x2472 <game_over+0x10>
    2470:	74 c0       	rjmp	.+232    	; 0x255a <game_over+0xf8>
		TOUR_PLAY(close);
    2472:	85 e2       	ldi	r24, 0x25	; 37
    2474:	92 e0       	ldi	r25, 0x02	; 2
    2476:	90 93 68 03 	sts	0x0368, r25
    247a:	80 93 67 03 	sts	0x0367, r24
    247e:	90 93 72 03 	sts	0x0372, r25
    2482:	80 93 71 03 	sts	0x0371, r24
    2486:	81 e0       	ldi	r24, 0x01	; 1
    2488:	80 93 b0 02 	sts	0x02B0, r24
    248c:	80 93 64 03 	sts	0x0364, r24
					
		obj = OLED_CREATE_OBJECT(0,0);
    2490:	c0 91 73 03 	lds	r28, 0x0373
    2494:	d0 91 74 03 	lds	r29, 0x0374
    2498:	d0 93 78 03 	sts	0x0378, r29
    249c:	c0 93 77 03 	sts	0x0377, r28
    24a0:	8c 85       	ldd	r24, Y+12	; 0x0c
    24a2:	9d 85       	ldd	r25, Y+13	; 0x0d
    24a4:	00 97       	sbiw	r24, 0x00	; 0
    24a6:	29 f4       	brne	.+10     	; 0x24b2 <game_over+0x50>
    24a8:	10 92 74 03 	sts	0x0374, r1
    24ac:	10 92 73 03 	sts	0x0373, r1
    24b0:	0e c0       	rjmp	.+28     	; 0x24ce <game_over+0x6c>
    24b2:	aa 85       	ldd	r26, Y+10	; 0x0a
    24b4:	bb 85       	ldd	r27, Y+11	; 0x0b
    24b6:	1d 96       	adiw	r26, 0x0d	; 13
    24b8:	9c 93       	st	X, r25
    24ba:	8e 93       	st	-X, r24
    24bc:	1c 97       	sbiw	r26, 0x0c	; 12
    24be:	ec 85       	ldd	r30, Y+12	; 0x0c
    24c0:	fd 85       	ldd	r31, Y+13	; 0x0d
    24c2:	b3 87       	std	Z+11, r27	; 0x0b
    24c4:	a2 87       	std	Z+10, r26	; 0x0a
    24c6:	f0 93 74 03 	sts	0x0374, r31
    24ca:	e0 93 73 03 	sts	0x0373, r30
    24ce:	a0 91 81 03 	lds	r26, 0x0381
    24d2:	b0 91 82 03 	lds	r27, 0x0382
    24d6:	10 97       	sbiw	r26, 0x00	; 0
    24d8:	49 f4       	brne	.+18     	; 0x24ec <game_over+0x8a>
    24da:	db 87       	std	Y+11, r29	; 0x0b
    24dc:	ca 87       	std	Y+10, r28	; 0x0a
    24de:	dd 87       	std	Y+13, r29	; 0x0d
    24e0:	cc 87       	std	Y+12, r28	; 0x0c
    24e2:	d0 93 7a 03 	sts	0x037A, r29
    24e6:	c0 93 79 03 	sts	0x0379, r28
    24ea:	12 c0       	rjmp	.+36     	; 0x2510 <game_over+0xae>
    24ec:	bb 87       	std	Y+11, r27	; 0x0b
    24ee:	aa 87       	std	Y+10, r26	; 0x0a
    24f0:	1c 96       	adiw	r26, 0x0c	; 12
    24f2:	8d 91       	ld	r24, X+
    24f4:	9c 91       	ld	r25, X
    24f6:	1d 97       	sbiw	r26, 0x0d	; 13
    24f8:	9d 87       	std	Y+13, r25	; 0x0d
    24fa:	8c 87       	std	Y+12, r24	; 0x0c
    24fc:	1c 96       	adiw	r26, 0x0c	; 12
    24fe:	ed 91       	ld	r30, X+
    2500:	fc 91       	ld	r31, X
    2502:	1d 97       	sbiw	r26, 0x0d	; 13
    2504:	d3 87       	std	Z+11, r29	; 0x0b
    2506:	c2 87       	std	Z+10, r28	; 0x0a
    2508:	1d 96       	adiw	r26, 0x0d	; 13
    250a:	dc 93       	st	X, r29
    250c:	ce 93       	st	-X, r28
    250e:	1c 97       	sbiw	r26, 0x0c	; 12
    2510:	d0 93 82 03 	sts	0x0382, r29
    2514:	c0 93 81 03 	sts	0x0381, r28
    2518:	1d 82       	std	Y+5, r1	; 0x05
    251a:	10 91 b1 02 	lds	r17, 0x02B1
		obj->idx_bitmap = OVER_INDEX + score/50000;
    251e:	60 91 fa 02 	lds	r22, 0x02FA
    2522:	70 91 fb 02 	lds	r23, 0x02FB
    2526:	80 91 fc 02 	lds	r24, 0x02FC
    252a:	90 91 fd 02 	lds	r25, 0x02FD
    252e:	20 e5       	ldi	r18, 0x50	; 80
    2530:	33 ec       	ldi	r19, 0xC3	; 195
    2532:	40 e0       	ldi	r20, 0x00	; 0
    2534:	50 e0       	ldi	r21, 0x00	; 0
    2536:	0e 94 4c 2c 	call	0x5898	; 0x5898 <__udivmodsi4>
    253a:	2d 5d       	subi	r18, 0xDD	; 221
    253c:	28 83       	st	Y, r18
		obj->left = 0;
    253e:	19 82       	std	Y+1, r1	; 0x01
		obj->right = 127;
    2540:	8f e7       	ldi	r24, 0x7F	; 127
    2542:	8b 83       	std	Y+3, r24	; 0x03
		obj->top = 32;
    2544:	80 e2       	ldi	r24, 0x20	; 32
    2546:	8a 83       	std	Y+2, r24	; 0x02
		obj->bottom = 95;
    2548:	8f e5       	ldi	r24, 0x5F	; 95
    254a:	8c 83       	std	Y+4, r24	; 0x04
		OLED_INVALIDATE_OBJECT_SIMPLE(obj);
    254c:	81 e0       	ldi	r24, 0x01	; 1
    254e:	8d 83       	std	Y+5, r24	; 0x05
		OLED_INVALIDATE();
    2550:	13 60       	ori	r17, 0x03	; 3
    2552:	10 93 b1 02 	sts	0x02B1, r17
		nstate2 = 1;
    2556:	80 93 f5 02 	sts	0x02F5, r24
	}
}
    255a:	df 91       	pop	r29
    255c:	cf 91       	pop	r28
    255e:	1f 91       	pop	r17
    2560:	08 95       	ret

00002562 <game_animation>:
unsigned char animation_num,animation_idx,animation_end;
unsigned int animation_frame,animation_div=10;
void game_animation(){
    2562:	0f 93       	push	r16
    2564:	1f 93       	push	r17
    2566:	cf 93       	push	r28
    2568:	df 93       	push	r29
	int i;
	if(nstate2==0){
    256a:	80 91 f5 02 	lds	r24, 0x02F5
    256e:	88 23       	and	r24, r24
    2570:	09 f0       	breq	.+2      	; 0x2574 <game_animation+0x12>
    2572:	7f c0       	rjmp	.+254    	; 0x2672 <game_animation+0x110>
		TIMER_RESET;
    2574:	10 92 e7 06 	sts	0x06E7, r1
    2578:	10 92 e6 06 	sts	0x06E6, r1
		OBJECT_HIDE(me);
    257c:	e0 91 23 03 	lds	r30, 0x0323
    2580:	f0 91 24 03 	lds	r31, 0x0324
    2584:	10 82       	st	Z, r1
    2586:	85 81       	ldd	r24, Z+5	; 0x05
    2588:	81 60       	ori	r24, 0x01	; 1
    258a:	85 83       	std	Z+5, r24	; 0x05
    258c:	90 91 b1 02 	lds	r25, 0x02B1
    2590:	92 60       	ori	r25, 0x02	; 2
		OBJECT_HIDE(com);
    2592:	e0 91 3b 03 	lds	r30, 0x033B
    2596:	f0 91 3c 03 	lds	r31, 0x033C
    259a:	10 82       	st	Z, r1
    259c:	85 81       	ldd	r24, Z+5	; 0x05
    259e:	81 60       	ori	r24, 0x01	; 1
    25a0:	85 83       	std	Z+5, r24	; 0x05
		OBJECT_HIDE(effect);
    25a2:	e0 91 38 03 	lds	r30, 0x0338
    25a6:	f0 91 39 03 	lds	r31, 0x0339
    25aa:	10 82       	st	Z, r1
    25ac:	85 81       	ldd	r24, Z+5	; 0x05
    25ae:	81 60       	ori	r24, 0x01	; 1
    25b0:	85 83       	std	Z+5, r24	; 0x05
    25b2:	a8 e2       	ldi	r26, 0x28	; 40
    25b4:	b3 e0       	ldi	r27, 0x03	; 3
		for(i=0;i<8;i++) OBJECT_HIDE(obj_hearts[i]);
    25b6:	ed 91       	ld	r30, X+
    25b8:	fc 91       	ld	r31, X
    25ba:	11 97       	sbiw	r26, 0x01	; 1
    25bc:	10 82       	st	Z, r1
    25be:	ed 91       	ld	r30, X+
    25c0:	fd 91       	ld	r31, X+
    25c2:	85 81       	ldd	r24, Z+5	; 0x05
    25c4:	81 60       	ori	r24, 0x01	; 1
    25c6:	85 83       	std	Z+5, r24	; 0x05
    25c8:	83 e0       	ldi	r24, 0x03	; 3
    25ca:	a8 33       	cpi	r26, 0x38	; 56
    25cc:	b8 07       	cpc	r27, r24
    25ce:	99 f7       	brne	.-26     	; 0x25b6 <game_animation+0x54>
    25d0:	a3 e1       	ldi	r26, 0x13	; 19
    25d2:	b3 e0       	ldi	r27, 0x03	; 3
		for(i=0;i<8;i++) OBJECT_HIDE(obj_me_musicnotes[i]);
    25d4:	ed 91       	ld	r30, X+
    25d6:	fc 91       	ld	r31, X
    25d8:	11 97       	sbiw	r26, 0x01	; 1
    25da:	10 82       	st	Z, r1
    25dc:	ed 91       	ld	r30, X+
    25de:	fd 91       	ld	r31, X+
    25e0:	85 81       	ldd	r24, Z+5	; 0x05
    25e2:	81 60       	ori	r24, 0x01	; 1
    25e4:	85 83       	std	Z+5, r24	; 0x05
    25e6:	83 e0       	ldi	r24, 0x03	; 3
    25e8:	a3 32       	cpi	r26, 0x23	; 35
    25ea:	b8 07       	cpc	r27, r24
    25ec:	99 f7       	brne	.-26     	; 0x25d4 <game_animation+0x72>
    25ee:	90 93 b1 02 	sts	0x02B1, r25
    25f2:	af e3       	ldi	r26, 0x3F	; 63
    25f4:	b3 e0       	ldi	r27, 0x03	; 3
		for(i=0;i<8;i++) OBJECT_HIDE(obj_com_musicnotes[i]);
    25f6:	ed 91       	ld	r30, X+
    25f8:	fc 91       	ld	r31, X
    25fa:	11 97       	sbiw	r26, 0x01	; 1
    25fc:	10 82       	st	Z, r1
    25fe:	ed 91       	ld	r30, X+
    2600:	fd 91       	ld	r31, X+
    2602:	85 81       	ldd	r24, Z+5	; 0x05
    2604:	81 60       	ori	r24, 0x01	; 1
    2606:	85 83       	std	Z+5, r24	; 0x05
    2608:	83 e0       	ldi	r24, 0x03	; 3
    260a:	af 34       	cpi	r26, 0x4F	; 79
    260c:	b8 07       	cpc	r27, r24
    260e:	99 f7       	brne	.-26     	; 0x25f6 <game_animation+0x94>
    2610:	90 93 b1 02 	sts	0x02B1, r25
    2614:	a1 e5       	ldi	r26, 0x51	; 81
    2616:	b3 e0       	ldi	r27, 0x03	; 3
		for(i=0;i<5;i++){
			score_num[i]->idx_bitmap = NUMBERS_INDEX;
    2618:	94 e1       	ldi	r25, 0x14	; 20
    261a:	ed 91       	ld	r30, X+
    261c:	fc 91       	ld	r31, X
    261e:	11 97       	sbiw	r26, 0x01	; 1
    2620:	90 83       	st	Z, r25
			OLED_INVALIDATE_OBJECT_SIMPLE(score_num[i]);
    2622:	ed 91       	ld	r30, X+
    2624:	fd 91       	ld	r31, X+
    2626:	85 81       	ldd	r24, Z+5	; 0x05
    2628:	81 60       	ori	r24, 0x01	; 1
    262a:	85 83       	std	Z+5, r24	; 0x05
		OBJECT_HIDE(com);
		OBJECT_HIDE(effect);
		for(i=0;i<8;i++) OBJECT_HIDE(obj_hearts[i]);
		for(i=0;i<8;i++) OBJECT_HIDE(obj_me_musicnotes[i]);
		for(i=0;i<8;i++) OBJECT_HIDE(obj_com_musicnotes[i]);
		for(i=0;i<5;i++){
    262c:	83 e0       	ldi	r24, 0x03	; 3
    262e:	ab 35       	cpi	r26, 0x5B	; 91
    2630:	b8 07       	cpc	r27, r24
    2632:	99 f7       	brne	.-26     	; 0x261a <game_animation+0xb8>
			score_num[i]->idx_bitmap = NUMBERS_INDEX;
			OLED_INVALIDATE_OBJECT_SIMPLE(score_num[i]);
		}
		nstate2 = 1;
    2634:	81 e0       	ldi	r24, 0x01	; 1
    2636:	80 93 f5 02 	sts	0x02F5, r24
		animation_num = 0;
    263a:	10 92 3d 03 	sts	0x033D, r1
		animation_idx = 4;
    263e:	84 e0       	ldi	r24, 0x04	; 4
    2640:	80 93 3e 03 	sts	0x033E, r24
		animation_end = score%10;
    2644:	60 91 fa 02 	lds	r22, 0x02FA
    2648:	70 91 fb 02 	lds	r23, 0x02FB
    264c:	80 91 fc 02 	lds	r24, 0x02FC
    2650:	90 91 fd 02 	lds	r25, 0x02FD
    2654:	2a e0       	ldi	r18, 0x0A	; 10
    2656:	30 e0       	ldi	r19, 0x00	; 0
    2658:	40 e0       	ldi	r20, 0x00	; 0
    265a:	50 e0       	ldi	r21, 0x00	; 0
    265c:	0e 94 4c 2c 	call	0x5898	; 0x5898 <__udivmodsi4>
    2660:	60 93 27 03 	sts	0x0327, r22
		animation_frame = AFTER(6);
    2664:	86 e0       	ldi	r24, 0x06	; 6
    2666:	90 e0       	ldi	r25, 0x00	; 0
    2668:	90 93 5c 03 	sts	0x035C, r25
    266c:	80 93 5b 03 	sts	0x035B, r24
    2670:	52 c0       	rjmp	.+164    	; 0x2716 <game_animation+0x1b4>
	}
	else {
		if(CHECK_TIME(animation_frame)){
    2672:	c0 91 e6 06 	lds	r28, 0x06E6
    2676:	d0 91 e7 06 	lds	r29, 0x06E7
    267a:	80 91 5b 03 	lds	r24, 0x035B
    267e:	90 91 5c 03 	lds	r25, 0x035C
    2682:	c8 17       	cp	r28, r24
    2684:	d9 07       	cpc	r29, r25
    2686:	08 f4       	brcc	.+2      	; 0x268a <game_animation+0x128>
    2688:	46 c0       	rjmp	.+140    	; 0x2716 <game_animation+0x1b4>
			animation_num++;
    268a:	80 91 3d 03 	lds	r24, 0x033D
    268e:	8f 5f       	subi	r24, 0xFF	; 255
    2690:	80 93 3d 03 	sts	0x033D, r24
			if(animation_num > animation_end ){
    2694:	90 91 27 03 	lds	r25, 0x0327
    2698:	98 17       	cp	r25, r24
    269a:	c0 f5       	brcc	.+112    	; 0x270c <game_animation+0x1aa>
				if(animation_idx == 0){
    269c:	80 91 3e 03 	lds	r24, 0x033E
    26a0:	88 23       	and	r24, r24
    26a2:	31 f4       	brne	.+12     	; 0x26b0 <game_animation+0x14e>
					nstate = GAME_OVER;
    26a4:	86 e0       	ldi	r24, 0x06	; 6
    26a6:	80 93 f4 02 	sts	0x02F4, r24
					nstate2 = 0;
    26aa:	10 92 f5 02 	sts	0x02F5, r1
    26ae:	4b c0       	rjmp	.+150    	; 0x2746 <game_animation+0x1e4>
					return ;
				}
				animation_idx--;
    26b0:	81 50       	subi	r24, 0x01	; 1
    26b2:	80 93 3e 03 	sts	0x033E, r24
				animation_num=0;
    26b6:	10 92 3d 03 	sts	0x033D, r1
				animation_end = (score/animation_div)%10;
    26ba:	00 91 67 02 	lds	r16, 0x0267
    26be:	10 91 68 02 	lds	r17, 0x0268
    26c2:	98 01       	movw	r18, r16
    26c4:	40 e0       	ldi	r20, 0x00	; 0
    26c6:	50 e0       	ldi	r21, 0x00	; 0
    26c8:	60 91 fa 02 	lds	r22, 0x02FA
    26cc:	70 91 fb 02 	lds	r23, 0x02FB
    26d0:	80 91 fc 02 	lds	r24, 0x02FC
    26d4:	90 91 fd 02 	lds	r25, 0x02FD
    26d8:	0e 94 4c 2c 	call	0x5898	; 0x5898 <__udivmodsi4>
    26dc:	ca 01       	movw	r24, r20
    26de:	b9 01       	movw	r22, r18
    26e0:	2a e0       	ldi	r18, 0x0A	; 10
    26e2:	30 e0       	ldi	r19, 0x00	; 0
    26e4:	40 e0       	ldi	r20, 0x00	; 0
    26e6:	50 e0       	ldi	r21, 0x00	; 0
    26e8:	0e 94 4c 2c 	call	0x5898	; 0x5898 <__udivmodsi4>
    26ec:	60 93 27 03 	sts	0x0327, r22
				animation_div*=10;
    26f0:	c8 01       	movw	r24, r16
    26f2:	33 e0       	ldi	r19, 0x03	; 3
    26f4:	88 0f       	add	r24, r24
    26f6:	99 1f       	adc	r25, r25
    26f8:	3a 95       	dec	r19
    26fa:	e1 f7       	brne	.-8      	; 0x26f4 <game_animation+0x192>
    26fc:	00 0f       	add	r16, r16
    26fe:	11 1f       	adc	r17, r17
    2700:	80 0f       	add	r24, r16
    2702:	91 1f       	adc	r25, r17
    2704:	90 93 68 02 	sts	0x0268, r25
    2708:	80 93 67 02 	sts	0x0267, r24
			}
			animation_frame = AFTER(6);
    270c:	26 96       	adiw	r28, 0x06	; 6
    270e:	d0 93 5c 03 	sts	0x035C, r29
    2712:	c0 93 5b 03 	sts	0x035B, r28
		}
	}
	score_num[animation_idx]->idx_bitmap = animation_num + NUMBERS_INDEX;
    2716:	e0 91 3e 03 	lds	r30, 0x033E
    271a:	f0 e0       	ldi	r31, 0x00	; 0
    271c:	ee 0f       	add	r30, r30
    271e:	ff 1f       	adc	r31, r31
    2720:	ef 5a       	subi	r30, 0xAF	; 175
    2722:	fc 4f       	sbci	r31, 0xFC	; 252
    2724:	a0 81       	ld	r26, Z
    2726:	b1 81       	ldd	r27, Z+1	; 0x01
    2728:	80 91 3d 03 	lds	r24, 0x033D
    272c:	8c 5e       	subi	r24, 0xEC	; 236
    272e:	8c 93       	st	X, r24
	OLED_INVALIDATE_OBJECT_SIMPLE(score_num[animation_idx]);
    2730:	01 90       	ld	r0, Z+
    2732:	f0 81       	ld	r31, Z
    2734:	e0 2d       	mov	r30, r0
    2736:	85 81       	ldd	r24, Z+5	; 0x05
    2738:	81 60       	ori	r24, 0x01	; 1
    273a:	85 83       	std	Z+5, r24	; 0x05
	OLED_INVALIDATE();
    273c:	80 91 b1 02 	lds	r24, 0x02B1
    2740:	82 60       	ori	r24, 0x02	; 2
    2742:	80 93 b1 02 	sts	0x02B1, r24
}
    2746:	df 91       	pop	r29
    2748:	cf 91       	pop	r28
    274a:	1f 91       	pop	r17
    274c:	0f 91       	pop	r16
    274e:	08 95       	ret

00002750 <makeComputerDances>:
		next_computer_dance_frame = AFTER(30);
	}
}
unsigned char dance_count;

void makeComputerDances(unsigned char count){
    2750:	ef 92       	push	r14
    2752:	ff 92       	push	r15
    2754:	0f 93       	push	r16
    2756:	1f 93       	push	r17
    2758:	cf 93       	push	r28
    275a:	df 93       	push	r29
	int i;
	n_comframe = 0;
    275c:	10 92 03 03 	sts	0x0303, r1
	dance_count = count;
    2760:	80 93 50 03 	sts	0x0350, r24
    2764:	c4 e0       	ldi	r28, 0x04	; 4
    2766:	d3 e0       	ldi	r29, 0x03	; 3
	for(i=0;i<count;i++){
    2768:	e8 2e       	mov	r14, r24
    276a:	ff 24       	eor	r15, r15
    276c:	87 01       	movw	r16, r14
    276e:	0c 0f       	add	r16, r28
    2770:	1d 1f       	adc	r17, r29
    2772:	07 c0       	rjmp	.+14     	; 0x2782 <makeComputerDances+0x32>
		dances[i] = rand()%7;
    2774:	0e 94 e4 2c 	call	0x59c8	; 0x59c8 <rand>
    2778:	67 e0       	ldi	r22, 0x07	; 7
    277a:	70 e0       	ldi	r23, 0x00	; 0
    277c:	0e 94 39 2c 	call	0x5872	; 0x5872 <__divmodhi4>
    2780:	89 93       	st	Y+, r24

void makeComputerDances(unsigned char count){
	int i;
	n_comframe = 0;
	dance_count = count;
	for(i=0;i<count;i++){
    2782:	c0 17       	cp	r28, r16
    2784:	d1 07       	cpc	r29, r17
    2786:	b1 f7       	brne	.-20     	; 0x2774 <makeComputerDances+0x24>
		dances[i] = rand()%7;
	}
	dances[count] = 7;
    2788:	87 e0       	ldi	r24, 0x07	; 7
    278a:	88 83       	st	Y, r24
	dance_frame_tick = (GAME_SPEED/count); //   . GAME_SPEED  TermProject.h .
    278c:	80 ef       	ldi	r24, 0xF0	; 240
    278e:	90 e0       	ldi	r25, 0x00	; 0
    2790:	b7 01       	movw	r22, r14
    2792:	0e 94 39 2c 	call	0x5872	; 0x5872 <__divmodhi4>
    2796:	60 93 02 03 	sts	0x0302, r22
											// 
	MNOTE_CLEAR(obj_me_musicnotes);
    279a:	e0 91 13 03 	lds	r30, 0x0313
    279e:	f0 91 14 03 	lds	r31, 0x0314
    27a2:	10 82       	st	Z, r1
    27a4:	e0 91 13 03 	lds	r30, 0x0313
    27a8:	f0 91 14 03 	lds	r31, 0x0314
    27ac:	85 81       	ldd	r24, Z+5	; 0x05
    27ae:	81 60       	ori	r24, 0x01	; 1
    27b0:	85 83       	std	Z+5, r24	; 0x05
    27b2:	90 91 b1 02 	lds	r25, 0x02B1
    27b6:	92 60       	ori	r25, 0x02	; 2
    27b8:	e0 91 15 03 	lds	r30, 0x0315
    27bc:	f0 91 16 03 	lds	r31, 0x0316
    27c0:	10 82       	st	Z, r1
    27c2:	e0 91 15 03 	lds	r30, 0x0315
    27c6:	f0 91 16 03 	lds	r31, 0x0316
    27ca:	85 81       	ldd	r24, Z+5	; 0x05
    27cc:	81 60       	ori	r24, 0x01	; 1
    27ce:	85 83       	std	Z+5, r24	; 0x05
    27d0:	e0 91 17 03 	lds	r30, 0x0317
    27d4:	f0 91 18 03 	lds	r31, 0x0318
    27d8:	10 82       	st	Z, r1
    27da:	e0 91 17 03 	lds	r30, 0x0317
    27de:	f0 91 18 03 	lds	r31, 0x0318
    27e2:	85 81       	ldd	r24, Z+5	; 0x05
    27e4:	81 60       	ori	r24, 0x01	; 1
    27e6:	85 83       	std	Z+5, r24	; 0x05
    27e8:	e0 91 19 03 	lds	r30, 0x0319
    27ec:	f0 91 1a 03 	lds	r31, 0x031A
    27f0:	10 82       	st	Z, r1
    27f2:	e0 91 19 03 	lds	r30, 0x0319
    27f6:	f0 91 1a 03 	lds	r31, 0x031A
    27fa:	85 81       	ldd	r24, Z+5	; 0x05
    27fc:	81 60       	ori	r24, 0x01	; 1
    27fe:	85 83       	std	Z+5, r24	; 0x05
    2800:	e0 91 1b 03 	lds	r30, 0x031B
    2804:	f0 91 1c 03 	lds	r31, 0x031C
    2808:	10 82       	st	Z, r1
    280a:	e0 91 1b 03 	lds	r30, 0x031B
    280e:	f0 91 1c 03 	lds	r31, 0x031C
    2812:	85 81       	ldd	r24, Z+5	; 0x05
    2814:	81 60       	ori	r24, 0x01	; 1
    2816:	85 83       	std	Z+5, r24	; 0x05
    2818:	e0 91 1d 03 	lds	r30, 0x031D
    281c:	f0 91 1e 03 	lds	r31, 0x031E
    2820:	10 82       	st	Z, r1
    2822:	e0 91 1d 03 	lds	r30, 0x031D
    2826:	f0 91 1e 03 	lds	r31, 0x031E
    282a:	85 81       	ldd	r24, Z+5	; 0x05
    282c:	81 60       	ori	r24, 0x01	; 1
    282e:	85 83       	std	Z+5, r24	; 0x05
    2830:	e0 91 1f 03 	lds	r30, 0x031F
    2834:	f0 91 20 03 	lds	r31, 0x0320
    2838:	10 82       	st	Z, r1
    283a:	e0 91 1f 03 	lds	r30, 0x031F
    283e:	f0 91 20 03 	lds	r31, 0x0320
    2842:	85 81       	ldd	r24, Z+5	; 0x05
    2844:	81 60       	ori	r24, 0x01	; 1
    2846:	85 83       	std	Z+5, r24	; 0x05
    2848:	e0 91 21 03 	lds	r30, 0x0321
    284c:	f0 91 22 03 	lds	r31, 0x0322
    2850:	10 82       	st	Z, r1
    2852:	e0 91 21 03 	lds	r30, 0x0321
    2856:	f0 91 22 03 	lds	r31, 0x0322
    285a:	85 81       	ldd	r24, Z+5	; 0x05
    285c:	81 60       	ori	r24, 0x01	; 1
    285e:	85 83       	std	Z+5, r24	; 0x05
    2860:	90 93 b1 02 	sts	0x02B1, r25
	//PRINT(1,0,"Computer Dance!");
	next_computer_dance_frame = AFTER(dance_frame_tick);
    2864:	80 91 e6 06 	lds	r24, 0x06E6
    2868:	90 91 e7 06 	lds	r25, 0x06E7
    286c:	86 0f       	add	r24, r22
    286e:	91 1d       	adc	r25, r1
    2870:	90 93 01 03 	sts	0x0301, r25
    2874:	80 93 00 03 	sts	0x0300, r24
}
    2878:	df 91       	pop	r29
    287a:	cf 91       	pop	r28
    287c:	1f 91       	pop	r17
    287e:	0f 91       	pop	r16
    2880:	ff 90       	pop	r15
    2882:	ef 90       	pop	r14
    2884:	08 95       	ret

00002886 <game_dance>:
	score += def_scores[idx] * (combo/5 + 1);
	SCORE_REFRESH();
	judged = 1;
}

void game_dance(){
    2886:	cf 93       	push	r28
    2888:	df 93       	push	r29
	int i;
	if(CHECK_TIME(next_computer_dance_frame)){
    288a:	20 91 00 03 	lds	r18, 0x0300
    288e:	30 91 01 03 	lds	r19, 0x0301
    2892:	80 91 e6 06 	lds	r24, 0x06E6
    2896:	90 91 e7 06 	lds	r25, 0x06E7
    289a:	82 17       	cp	r24, r18
    289c:	93 07       	cpc	r25, r19
    289e:	08 f4       	brcc	.+2      	; 0x28a2 <game_dance+0x1c>
    28a0:	74 c1       	rjmp	.+744    	; 0x2b8a <game_dance+0x304>
		if(dances[n_comframe] >= 7){
    28a2:	50 91 03 03 	lds	r21, 0x0303
    28a6:	c5 2f       	mov	r28, r21
    28a8:	d0 e0       	ldi	r29, 0x00	; 0
    28aa:	de 01       	movw	r26, r28
    28ac:	ac 5f       	subi	r26, 0xFC	; 252
    28ae:	bc 4f       	sbci	r27, 0xFC	; 252
    28b0:	8c 91       	ld	r24, X
    28b2:	87 30       	cpi	r24, 0x07	; 7
    28b4:	08 f4       	brcc	.+2      	; 0x28b8 <game_dance+0x32>
    28b6:	b9 c0       	rjmp	.+370    	; 0x2a2a <game_dance+0x1a4>
			if(nstate2 == 0){
    28b8:	80 91 f5 02 	lds	r24, 0x02F5
    28bc:	e0 91 3b 03 	lds	r30, 0x033B
    28c0:	f0 91 3c 03 	lds	r31, 0x033C
    28c4:	88 23       	and	r24, r24
    28c6:	09 f0       	breq	.+2      	; 0x28ca <game_dance+0x44>
    28c8:	8b c0       	rjmp	.+278    	; 0x29e0 <game_dance+0x15a>
				COMDANCE(0);
    28ca:	21 e0       	ldi	r18, 0x01	; 1
    28cc:	20 93 0e 03 	sts	0x030E, r18
    28d0:	20 83       	st	Z, r18
    28d2:	e0 91 3b 03 	lds	r30, 0x033B
    28d6:	f0 91 3c 03 	lds	r31, 0x033C
    28da:	85 81       	ldd	r24, Z+5	; 0x05
    28dc:	81 60       	ori	r24, 0x01	; 1
    28de:	85 83       	std	Z+5, r24	; 0x05
    28e0:	90 91 b1 02 	lds	r25, 0x02B1
    28e4:	92 60       	ori	r25, 0x02	; 2
				n_comframe = 0;
    28e6:	10 92 03 03 	sts	0x0303, r1
				judged = 0;
    28ea:	10 92 3a 03 	sts	0x033A, r1
				MNOTE_CLEAR(obj_com_musicnotes);
    28ee:	e0 91 3f 03 	lds	r30, 0x033F
    28f2:	f0 91 40 03 	lds	r31, 0x0340
    28f6:	10 82       	st	Z, r1
    28f8:	e0 91 3f 03 	lds	r30, 0x033F
    28fc:	f0 91 40 03 	lds	r31, 0x0340
    2900:	85 81       	ldd	r24, Z+5	; 0x05
    2902:	81 60       	ori	r24, 0x01	; 1
    2904:	85 83       	std	Z+5, r24	; 0x05
    2906:	e0 91 41 03 	lds	r30, 0x0341
    290a:	f0 91 42 03 	lds	r31, 0x0342
    290e:	10 82       	st	Z, r1
    2910:	e0 91 41 03 	lds	r30, 0x0341
    2914:	f0 91 42 03 	lds	r31, 0x0342
    2918:	85 81       	ldd	r24, Z+5	; 0x05
    291a:	81 60       	ori	r24, 0x01	; 1
    291c:	85 83       	std	Z+5, r24	; 0x05
    291e:	e0 91 43 03 	lds	r30, 0x0343
    2922:	f0 91 44 03 	lds	r31, 0x0344
    2926:	10 82       	st	Z, r1
    2928:	e0 91 43 03 	lds	r30, 0x0343
    292c:	f0 91 44 03 	lds	r31, 0x0344
    2930:	85 81       	ldd	r24, Z+5	; 0x05
    2932:	81 60       	ori	r24, 0x01	; 1
    2934:	85 83       	std	Z+5, r24	; 0x05
    2936:	e0 91 45 03 	lds	r30, 0x0345
    293a:	f0 91 46 03 	lds	r31, 0x0346
    293e:	10 82       	st	Z, r1
    2940:	e0 91 45 03 	lds	r30, 0x0345
    2944:	f0 91 46 03 	lds	r31, 0x0346
    2948:	85 81       	ldd	r24, Z+5	; 0x05
    294a:	81 60       	ori	r24, 0x01	; 1
    294c:	85 83       	std	Z+5, r24	; 0x05
    294e:	e0 91 47 03 	lds	r30, 0x0347
    2952:	f0 91 48 03 	lds	r31, 0x0348
    2956:	10 82       	st	Z, r1
    2958:	e0 91 47 03 	lds	r30, 0x0347
    295c:	f0 91 48 03 	lds	r31, 0x0348
    2960:	85 81       	ldd	r24, Z+5	; 0x05
    2962:	81 60       	ori	r24, 0x01	; 1
    2964:	85 83       	std	Z+5, r24	; 0x05
    2966:	e0 91 49 03 	lds	r30, 0x0349
    296a:	f0 91 4a 03 	lds	r31, 0x034A
    296e:	10 82       	st	Z, r1
    2970:	e0 91 49 03 	lds	r30, 0x0349
    2974:	f0 91 4a 03 	lds	r31, 0x034A
    2978:	85 81       	ldd	r24, Z+5	; 0x05
    297a:	81 60       	ori	r24, 0x01	; 1
    297c:	85 83       	std	Z+5, r24	; 0x05
    297e:	e0 91 4b 03 	lds	r30, 0x034B
    2982:	f0 91 4c 03 	lds	r31, 0x034C
    2986:	10 82       	st	Z, r1
    2988:	e0 91 4b 03 	lds	r30, 0x034B
    298c:	f0 91 4c 03 	lds	r31, 0x034C
    2990:	85 81       	ldd	r24, Z+5	; 0x05
    2992:	81 60       	ori	r24, 0x01	; 1
    2994:	85 83       	std	Z+5, r24	; 0x05
    2996:	90 93 b1 02 	sts	0x02B1, r25
    299a:	e0 91 4d 03 	lds	r30, 0x034D
    299e:	f0 91 4e 03 	lds	r31, 0x034E
    29a2:	10 82       	st	Z, r1
    29a4:	e0 91 4d 03 	lds	r30, 0x034D
    29a8:	f0 91 4e 03 	lds	r31, 0x034E
    29ac:	85 81       	ldd	r24, Z+5	; 0x05
    29ae:	81 60       	ori	r24, 0x01	; 1
    29b0:	85 83       	std	Z+5, r24	; 0x05
    29b2:	90 93 b1 02 	sts	0x02B1, r25
				nstate2 = 1;
    29b6:	20 93 f5 02 	sts	0x02F5, r18
				next_computer_dance_frame = AFTER(SECOND(1));
    29ba:	80 91 e6 06 	lds	r24, 0x06E6
    29be:	90 91 e7 06 	lds	r25, 0x06E7
    29c2:	cc 96       	adiw	r24, 0x3c	; 60
    29c4:	90 93 01 03 	sts	0x0301, r25
    29c8:	80 93 00 03 	sts	0x0300, r24
				next_judge_end_frame = next_computer_dance_frame + dance_frame_tick/2;
    29cc:	20 91 02 03 	lds	r18, 0x0302
    29d0:	26 95       	lsr	r18
    29d2:	82 0f       	add	r24, r18
    29d4:	91 1d       	adc	r25, r1
    29d6:	90 93 26 03 	sts	0x0326, r25
    29da:	80 93 25 03 	sts	0x0325, r24
    29de:	d5 c0       	rjmp	.+426    	; 0x2b8a <game_dance+0x304>
			} else {
				COMDANCE(0);
    29e0:	81 e0       	ldi	r24, 0x01	; 1
    29e2:	80 93 0e 03 	sts	0x030E, r24
    29e6:	80 83       	st	Z, r24
    29e8:	e0 91 3b 03 	lds	r30, 0x033B
    29ec:	f0 91 3c 03 	lds	r31, 0x033C
    29f0:	85 81       	ldd	r24, Z+5	; 0x05
    29f2:	81 60       	ori	r24, 0x01	; 1
    29f4:	85 83       	std	Z+5, r24	; 0x05
    29f6:	80 91 b1 02 	lds	r24, 0x02B1
    29fa:	82 60       	ori	r24, 0x02	; 2
    29fc:	80 93 b1 02 	sts	0x02B1, r24
				makeComputerDances(8); //  8 GAME_SPEED   , 8  .
    2a00:	88 e0       	ldi	r24, 0x08	; 8
    2a02:	0e 94 a8 13 	call	0x2750	; 0x2750 <makeComputerDances>
				judge_comframe = 0;
    2a06:	10 92 5d 03 	sts	0x035D, r1
				nstate2 = 0;
    2a0a:	10 92 f5 02 	sts	0x02F5, r1
				next_computer_dance_frame = AFTER(SECOND(1));
    2a0e:	80 91 e6 06 	lds	r24, 0x06E6
    2a12:	90 91 e7 06 	lds	r25, 0x06E7
    2a16:	cc 96       	adiw	r24, 0x3c	; 60
    2a18:	90 93 01 03 	sts	0x0301, r25
    2a1c:	80 93 00 03 	sts	0x0300, r24
				next_judge_end_frame = 0;
    2a20:	10 92 26 03 	sts	0x0326, r1
    2a24:	10 92 25 03 	sts	0x0325, r1
    2a28:	b0 c0       	rjmp	.+352    	; 0x2b8a <game_dance+0x304>
			}
		} else {
			COMDANCE(dances[n_comframe]);
    2a2a:	8f 5f       	subi	r24, 0xFF	; 255
    2a2c:	80 93 0e 03 	sts	0x030E, r24
    2a30:	e0 91 3b 03 	lds	r30, 0x033B
    2a34:	f0 91 3c 03 	lds	r31, 0x033C
    2a38:	80 83       	st	Z, r24
    2a3a:	e0 91 3b 03 	lds	r30, 0x033B
    2a3e:	f0 91 3c 03 	lds	r31, 0x033C
    2a42:	85 81       	ldd	r24, Z+5	; 0x05
    2a44:	81 60       	ori	r24, 0x01	; 1
    2a46:	85 83       	std	Z+5, r24	; 0x05
    2a48:	40 91 b1 02 	lds	r20, 0x02B1
    2a4c:	42 60       	ori	r20, 0x02	; 2
    2a4e:	40 93 b1 02 	sts	0x02B1, r20
			next_computer_dance_frame += (dance_frame_tick);
    2a52:	80 91 02 03 	lds	r24, 0x0302
    2a56:	28 0f       	add	r18, r24
    2a58:	31 1d       	adc	r19, r1
    2a5a:	30 93 01 03 	sts	0x0301, r19
    2a5e:	20 93 00 03 	sts	0x0300, r18
			if(nstate2==0) {
    2a62:	80 91 f5 02 	lds	r24, 0x02F5
    2a66:	88 23       	and	r24, r24
    2a68:	09 f0       	breq	.+2      	; 0x2a6c <game_dance+0x1e6>
    2a6a:	4c c0       	rjmp	.+152    	; 0x2b04 <game_dance+0x27e>
				TOUR_PLAY(effect_sounds[dances[n_comframe]-1]);
    2a6c:	ec 91       	ld	r30, X
    2a6e:	f0 e0       	ldi	r31, 0x00	; 0
    2a70:	ee 0f       	add	r30, r30
    2a72:	ff 1f       	adc	r31, r31
    2a74:	e1 5b       	subi	r30, 0xB1	; 177
    2a76:	fd 4f       	sbci	r31, 0xFD	; 253
    2a78:	80 81       	ld	r24, Z
    2a7a:	91 81       	ldd	r25, Z+1	; 0x01
    2a7c:	90 93 68 03 	sts	0x0368, r25
    2a80:	80 93 67 03 	sts	0x0367, r24
    2a84:	90 93 72 03 	sts	0x0372, r25
    2a88:	80 93 71 03 	sts	0x0371, r24
    2a8c:	81 e0       	ldi	r24, 0x01	; 1
    2a8e:	80 93 b0 02 	sts	0x02B0, r24
    2a92:	80 93 64 03 	sts	0x0364, r24
				if(n_comframe>0 )  MNOTE_UNCHECK(obj_com_musicnotes[n_comframe-1],dances[n_comframe-1]);
    2a96:	55 23       	and	r21, r21
    2a98:	f9 f0       	breq	.+62     	; 0x2ad8 <game_dance+0x252>
    2a9a:	de 01       	movw	r26, r28
    2a9c:	11 97       	sbiw	r26, 0x01	; 1
    2a9e:	fd 01       	movw	r30, r26
    2aa0:	ee 0f       	add	r30, r30
    2aa2:	ff 1f       	adc	r31, r31
    2aa4:	e1 5c       	subi	r30, 0xC1	; 193
    2aa6:	fc 4f       	sbci	r31, 0xFC	; 252
    2aa8:	20 81       	ld	r18, Z
    2aaa:	31 81       	ldd	r19, Z+1	; 0x01
    2aac:	fd 01       	movw	r30, r26
    2aae:	ec 5f       	subi	r30, 0xFC	; 252
    2ab0:	fc 4f       	sbci	r31, 0xFC	; 252
    2ab2:	80 81       	ld	r24, Z
    2ab4:	88 23       	and	r24, r24
    2ab6:	11 f4       	brne	.+4      	; 0x2abc <game_dance+0x236>
    2ab8:	86 e2       	ldi	r24, 0x26	; 38
    2aba:	01 c0       	rjmp	.+2      	; 0x2abe <game_dance+0x238>
    2abc:	81 e2       	ldi	r24, 0x21	; 33
    2abe:	f9 01       	movw	r30, r18
    2ac0:	80 83       	st	Z, r24
    2ac2:	aa 0f       	add	r26, r26
    2ac4:	bb 1f       	adc	r27, r27
    2ac6:	a1 5c       	subi	r26, 0xC1	; 193
    2ac8:	bc 4f       	sbci	r27, 0xFC	; 252
    2aca:	ed 91       	ld	r30, X+
    2acc:	fc 91       	ld	r31, X
    2ace:	85 81       	ldd	r24, Z+5	; 0x05
    2ad0:	81 60       	ori	r24, 0x01	; 1
    2ad2:	85 83       	std	Z+5, r24	; 0x05
    2ad4:	40 93 b1 02 	sts	0x02B1, r20
				MNOTE_CHECK(obj_com_musicnotes[n_comframe],dances[n_comframe]);
    2ad8:	fe 01       	movw	r30, r28
    2ada:	ee 0f       	add	r30, r30
    2adc:	ff 1f       	adc	r31, r31
    2ade:	e1 5c       	subi	r30, 0xC1	; 193
    2ae0:	fc 4f       	sbci	r31, 0xFC	; 252
    2ae2:	a0 81       	ld	r26, Z
    2ae4:	b1 81       	ldd	r27, Z+1	; 0x01
    2ae6:	fe 01       	movw	r30, r28
    2ae8:	ec 5f       	subi	r30, 0xFC	; 252
    2aea:	fc 4f       	sbci	r31, 0xFC	; 252
    2aec:	80 81       	ld	r24, Z
    2aee:	88 23       	and	r24, r24
    2af0:	11 f4       	brne	.+4      	; 0x2af6 <game_dance+0x270>
    2af2:	87 e2       	ldi	r24, 0x27	; 39
    2af4:	01 c0       	rjmp	.+2      	; 0x2af8 <game_dance+0x272>
    2af6:	85 e2       	ldi	r24, 0x25	; 37
    2af8:	8c 93       	st	X, r24
    2afa:	cc 0f       	add	r28, r28
    2afc:	dd 1f       	adc	r29, r29
    2afe:	c1 5c       	subi	r28, 0xC1	; 193
    2b00:	dc 4f       	sbci	r29, 0xFC	; 252
    2b02:	36 c0       	rjmp	.+108    	; 0x2b70 <game_dance+0x2ea>
			}else {
				if(n_comframe>0) MNOTE_UNCHECK(obj_me_musicnotes[n_comframe-1],dances[n_comframe-1]);
    2b04:	55 23       	and	r21, r21
    2b06:	f9 f0       	breq	.+62     	; 0x2b46 <game_dance+0x2c0>
    2b08:	de 01       	movw	r26, r28
    2b0a:	11 97       	sbiw	r26, 0x01	; 1
    2b0c:	fd 01       	movw	r30, r26
    2b0e:	ee 0f       	add	r30, r30
    2b10:	ff 1f       	adc	r31, r31
    2b12:	ed 5e       	subi	r30, 0xED	; 237
    2b14:	fc 4f       	sbci	r31, 0xFC	; 252
    2b16:	20 81       	ld	r18, Z
    2b18:	31 81       	ldd	r19, Z+1	; 0x01
    2b1a:	fd 01       	movw	r30, r26
    2b1c:	ec 5f       	subi	r30, 0xFC	; 252
    2b1e:	fc 4f       	sbci	r31, 0xFC	; 252
    2b20:	80 81       	ld	r24, Z
    2b22:	88 23       	and	r24, r24
    2b24:	11 f4       	brne	.+4      	; 0x2b2a <game_dance+0x2a4>
    2b26:	86 e2       	ldi	r24, 0x26	; 38
    2b28:	01 c0       	rjmp	.+2      	; 0x2b2c <game_dance+0x2a6>
    2b2a:	81 e2       	ldi	r24, 0x21	; 33
    2b2c:	f9 01       	movw	r30, r18
    2b2e:	80 83       	st	Z, r24
    2b30:	aa 0f       	add	r26, r26
    2b32:	bb 1f       	adc	r27, r27
    2b34:	ad 5e       	subi	r26, 0xED	; 237
    2b36:	bc 4f       	sbci	r27, 0xFC	; 252
    2b38:	ed 91       	ld	r30, X+
    2b3a:	fc 91       	ld	r31, X
    2b3c:	85 81       	ldd	r24, Z+5	; 0x05
    2b3e:	81 60       	ori	r24, 0x01	; 1
    2b40:	85 83       	std	Z+5, r24	; 0x05
    2b42:	40 93 b1 02 	sts	0x02B1, r20
				MNOTE_CHECK(obj_me_musicnotes[n_comframe],dances[n_comframe]);
    2b46:	fe 01       	movw	r30, r28
    2b48:	ee 0f       	add	r30, r30
    2b4a:	ff 1f       	adc	r31, r31
    2b4c:	ed 5e       	subi	r30, 0xED	; 237
    2b4e:	fc 4f       	sbci	r31, 0xFC	; 252
    2b50:	a0 81       	ld	r26, Z
    2b52:	b1 81       	ldd	r27, Z+1	; 0x01
    2b54:	fe 01       	movw	r30, r28
    2b56:	ec 5f       	subi	r30, 0xFC	; 252
    2b58:	fc 4f       	sbci	r31, 0xFC	; 252
    2b5a:	80 81       	ld	r24, Z
    2b5c:	88 23       	and	r24, r24
    2b5e:	11 f4       	brne	.+4      	; 0x2b64 <game_dance+0x2de>
    2b60:	87 e2       	ldi	r24, 0x27	; 39
    2b62:	01 c0       	rjmp	.+2      	; 0x2b66 <game_dance+0x2e0>
    2b64:	85 e2       	ldi	r24, 0x25	; 37
    2b66:	8c 93       	st	X, r24
    2b68:	cc 0f       	add	r28, r28
    2b6a:	dd 1f       	adc	r29, r29
    2b6c:	cd 5e       	subi	r28, 0xED	; 237
    2b6e:	dc 4f       	sbci	r29, 0xFC	; 252
    2b70:	e8 81       	ld	r30, Y
    2b72:	f9 81       	ldd	r31, Y+1	; 0x01
    2b74:	85 81       	ldd	r24, Z+5	; 0x05
    2b76:	81 60       	ori	r24, 0x01	; 1
    2b78:	85 83       	std	Z+5, r24	; 0x05
    2b7a:	80 91 b1 02 	lds	r24, 0x02B1
    2b7e:	82 60       	ori	r24, 0x02	; 2
    2b80:	80 93 b1 02 	sts	0x02B1, r24
			}
			n_comframe++;
    2b84:	5f 5f       	subi	r21, 0xFF	; 255
    2b86:	50 93 03 03 	sts	0x0303, r21
		}
	}
	if(next_judge_end_frame && CHECK_TIME(next_judge_end_frame) && dances[judge_comframe] < 7){
    2b8a:	20 91 25 03 	lds	r18, 0x0325
    2b8e:	30 91 26 03 	lds	r19, 0x0326
    2b92:	21 15       	cp	r18, r1
    2b94:	31 05       	cpc	r19, r1
    2b96:	d1 f1       	breq	.+116    	; 0x2c0c <game_dance+0x386>
    2b98:	80 91 e6 06 	lds	r24, 0x06E6
    2b9c:	90 91 e7 06 	lds	r25, 0x06E7
    2ba0:	82 17       	cp	r24, r18
    2ba2:	93 07       	cpc	r25, r19
    2ba4:	98 f1       	brcs	.+102    	; 0x2c0c <game_dance+0x386>
    2ba6:	e0 91 5d 03 	lds	r30, 0x035D
    2baa:	f0 e0       	ldi	r31, 0x00	; 0
    2bac:	ec 5f       	subi	r30, 0xFC	; 252
    2bae:	fc 4f       	sbci	r31, 0xFC	; 252
    2bb0:	e0 81       	ld	r30, Z
    2bb2:	e7 30       	cpi	r30, 0x07	; 7
    2bb4:	58 f5       	brcc	.+86     	; 0x2c0c <game_dance+0x386>
		if(!judged){
    2bb6:	80 91 3a 03 	lds	r24, 0x033A
    2bba:	88 23       	and	r24, r24
    2bbc:	29 f5       	brne	.+74     	; 0x2c08 <game_dance+0x382>
			if(!dances[judge_comframe] && (me_dance_num > DANCE_INDEX)){
    2bbe:	ee 23       	and	r30, r30
    2bc0:	31 f4       	brne	.+12     	; 0x2bce <game_dance+0x348>
    2bc2:	80 91 0d 03 	lds	r24, 0x030D
    2bc6:	82 30       	cpi	r24, 0x02	; 2
    2bc8:	40 f0       	brcs	.+16     	; 0x2bda <game_dance+0x354>
				doeffect(4); // BAD !
    2bca:	84 e0       	ldi	r24, 0x04	; 4
    2bcc:	08 c0       	rjmp	.+16     	; 0x2bde <game_dance+0x358>
			} else if( dances[judge_comframe] && !me_danced ) {
    2bce:	80 91 4f 03 	lds	r24, 0x034F
    2bd2:	88 23       	and	r24, r24
    2bd4:	31 f4       	brne	.+12     	; 0x2be2 <game_dance+0x35c>
				doeffect(5);
    2bd6:	85 e0       	ldi	r24, 0x05	; 5
    2bd8:	02 c0       	rjmp	.+4      	; 0x2bde <game_dance+0x358>
			} else if( !dances[judge_comframe] && me_dance_num == DANCE_INDEX)	{
    2bda:	81 30       	cpi	r24, 0x01	; 1
    2bdc:	11 f4       	brne	.+4      	; 0x2be2 <game_dance+0x35c>
				doeffect(1);
    2bde:	0e 94 b2 10 	call	0x2164	; 0x2164 <doeffect>
			}
			me_danced = 0;
    2be2:	10 92 4f 03 	sts	0x034F, r1
			next_judge_end_frame += dance_frame_tick;
    2be6:	80 91 02 03 	lds	r24, 0x0302
    2bea:	20 91 25 03 	lds	r18, 0x0325
    2bee:	30 91 26 03 	lds	r19, 0x0326
    2bf2:	28 0f       	add	r18, r24
    2bf4:	31 1d       	adc	r19, r1
    2bf6:	30 93 26 03 	sts	0x0326, r19
    2bfa:	20 93 25 03 	sts	0x0325, r18
			judge_comframe++;
    2bfe:	80 91 5d 03 	lds	r24, 0x035D
    2c02:	8f 5f       	subi	r24, 0xFF	; 255
    2c04:	80 93 5d 03 	sts	0x035D, r24
		}
		judged = 0;
    2c08:	10 92 3a 03 	sts	0x033A, r1
	}
}
    2c0c:	df 91       	pop	r29
    2c0e:	cf 91       	pop	r28
    2c10:	08 95       	ret

00002c12 <game_start>:
	next_computer_dance_frame = AFTER(dance_frame_tick);
}
unsigned int next_dance_frame;
void game_start(){
	//setting
	srand(TIMER3_current_frame*TIMER3_FRAMES_PER_SECOND*TIMER3_TICKS_PER_FRAME+ TIMER3_tick);
    2c12:	40 91 e5 06 	lds	r20, 0x06E5
    2c16:	20 91 e6 06 	lds	r18, 0x06E6
    2c1a:	30 91 e7 06 	lds	r19, 0x06E7
    2c1e:	8c e3       	ldi	r24, 0x3C	; 60
    2c20:	90 e0       	ldi	r25, 0x00	; 0
    2c22:	bc 01       	movw	r22, r24
    2c24:	26 9f       	mul	r18, r22
    2c26:	c0 01       	movw	r24, r0
    2c28:	27 9f       	mul	r18, r23
    2c2a:	90 0d       	add	r25, r0
    2c2c:	36 9f       	mul	r19, r22
    2c2e:	90 0d       	add	r25, r0
    2c30:	11 24       	eor	r1, r1
    2c32:	84 0f       	add	r24, r20
    2c34:	91 1d       	adc	r25, r1
    2c36:	0e 94 e9 2c 	call	0x59d2	; 0x59d2 <srand>
	TIMER_RESET;
    2c3a:	10 92 e7 06 	sts	0x06E7, r1
    2c3e:	10 92 e6 06 	sts	0x06E6, r1
	makeComputerDances(8); // game_dance  makeComputerDances   
    2c42:	88 e0       	ldi	r24, 0x08	; 8
    2c44:	0e 94 a8 13 	call	0x2750	; 0x2750 <makeComputerDances>

	nstate = GAME_DANCE;
    2c48:	84 e0       	ldi	r24, 0x04	; 4
    2c4a:	80 93 f4 02 	sts	0x02F4, r24
	nstate2 = 0;
    2c4e:	10 92 f5 02 	sts	0x02F5, r1

	next_computer_dance_frame = AFTER(SECOND(1));
    2c52:	80 91 e6 06 	lds	r24, 0x06E6
    2c56:	90 91 e7 06 	lds	r25, 0x06E7
    2c5a:	cc 96       	adiw	r24, 0x3c	; 60
    2c5c:	90 93 01 03 	sts	0x0301, r25
    2c60:	80 93 00 03 	sts	0x0300, r24
}
    2c64:	08 95       	ret

00002c66 <game_stopped>:
	createHearts();

	OLED_INVALIDATE();
}
void game_stopped(){
	if(nstate2==0){
    2c66:	80 91 f5 02 	lds	r24, 0x02F5
    2c6a:	88 23       	and	r24, r24
    2c6c:	71 f4       	brne	.+28     	; 0x2c8a <game_stopped+0x24>
		PRINT(0,0,"Press 4 btn");
    2c6e:	ab e8       	ldi	r26, 0x8B	; 139
    2c70:	b2 e0       	ldi	r27, 0x02	; 2
    2c72:	e0 e0       	ldi	r30, 0x00	; 0
    2c74:	f1 e0       	ldi	r31, 0x01	; 1
    2c76:	8b e0       	ldi	r24, 0x0B	; 11
    2c78:	01 90       	ld	r0, Z+
    2c7a:	0d 92       	st	X+, r0
    2c7c:	81 50       	subi	r24, 0x01	; 1
    2c7e:	e1 f7       	brne	.-8      	; 0x2c78 <game_stopped+0x12>
		nstate2 = 1;
    2c80:	81 e0       	ldi	r24, 0x01	; 1
    2c82:	80 93 f5 02 	sts	0x02F5, r24
		CreateObjectsMain();
    2c86:	0e 94 ac 0c 	call	0x1958	; 0x1958 <CreateObjectsMain>
	}
	if(!TOUR_enabled){
    2c8a:	80 91 64 03 	lds	r24, 0x0364
    2c8e:	88 23       	and	r24, r24
    2c90:	79 f4       	brne	.+30     	; 0x2cb0 <game_stopped+0x4a>
		TOUR_PLAY(stopped_bgsound);
    2c92:	8e e5       	ldi	r24, 0x5E	; 94
    2c94:	91 e0       	ldi	r25, 0x01	; 1
    2c96:	90 93 68 03 	sts	0x0368, r25
    2c9a:	80 93 67 03 	sts	0x0367, r24
    2c9e:	90 93 72 03 	sts	0x0372, r25
    2ca2:	80 93 71 03 	sts	0x0371, r24
    2ca6:	81 e0       	ldi	r24, 0x01	; 1
    2ca8:	80 93 b0 02 	sts	0x02B0, r24
    2cac:	80 93 64 03 	sts	0x0364, r24
	}
	if(CHECK_TIME(next_computer_dance_frame)){
    2cb0:	20 91 e6 06 	lds	r18, 0x06E6
    2cb4:	30 91 e7 06 	lds	r19, 0x06E7
    2cb8:	80 91 00 03 	lds	r24, 0x0300
    2cbc:	90 91 01 03 	lds	r25, 0x0301
    2cc0:	28 17       	cp	r18, r24
    2cc2:	39 07       	cpc	r19, r25
    2cc4:	f8 f0       	brcs	.+62     	; 0x2d04 <game_stopped+0x9e>
		unsigned char rnd = rand()%7;
    2cc6:	0e 94 e4 2c 	call	0x59c8	; 0x59c8 <rand>
		COMDANCE(rnd);
    2cca:	67 e0       	ldi	r22, 0x07	; 7
    2ccc:	70 e0       	ldi	r23, 0x00	; 0
    2cce:	0e 94 39 2c 	call	0x5872	; 0x5872 <__divmodhi4>
    2cd2:	8f 5f       	subi	r24, 0xFF	; 255
    2cd4:	80 93 0e 03 	sts	0x030E, r24
    2cd8:	e0 91 3b 03 	lds	r30, 0x033B
    2cdc:	f0 91 3c 03 	lds	r31, 0x033C
    2ce0:	80 83       	st	Z, r24
    2ce2:	85 81       	ldd	r24, Z+5	; 0x05
    2ce4:	81 60       	ori	r24, 0x01	; 1
    2ce6:	85 83       	std	Z+5, r24	; 0x05
    2ce8:	80 91 b1 02 	lds	r24, 0x02B1
    2cec:	82 60       	ori	r24, 0x02	; 2
    2cee:	80 93 b1 02 	sts	0x02B1, r24
		next_computer_dance_frame = AFTER(30);
    2cf2:	80 91 e6 06 	lds	r24, 0x06E6
    2cf6:	90 91 e7 06 	lds	r25, 0x06E7
    2cfa:	4e 96       	adiw	r24, 0x1e	; 30
    2cfc:	90 93 01 03 	sts	0x0301, r25
    2d00:	80 93 00 03 	sts	0x0300, r24
    2d04:	08 95       	ret

00002d06 <btn_pressed>:
		buffer_LCD[1] = (combo/1000)%10 + '0',	\
		buffer_LCD[2] = (combo/100)%10 + '0',	\
		buffer_LCD[3] = (combo/10)%10 + '0',	\	
		buffer_LCD[4] = combo%10 + '0'			\
		)
void btn_pressed(unsigned btn_input){
    2d06:	cf 92       	push	r12
    2d08:	df 92       	push	r13
    2d0a:	ef 92       	push	r14
    2d0c:	ff 92       	push	r15
    2d0e:	0f 93       	push	r16
    2d10:	1f 93       	push	r17
    2d12:	cf 93       	push	r28
    2d14:	df 93       	push	r29
    2d16:	8c 01       	movw	r16, r24

	if(PUSHED && nstate != GAME_SCORE_ANIMATION && nstate != GAME_OVER){
    2d18:	80 91 f7 02 	lds	r24, 0x02F7
    2d1c:	90 e0       	ldi	r25, 0x00	; 0
    2d1e:	08 17       	cp	r16, r24
    2d20:	19 07       	cpc	r17, r25
    2d22:	09 f4       	brne	.+2      	; 0x2d26 <btn_pressed+0x20>
    2d24:	78 c1       	rjmp	.+752    	; 0x3016 <btn_pressed+0x310>
    2d26:	20 91 f4 02 	lds	r18, 0x02F4
    2d2a:	25 30       	cpi	r18, 0x05	; 5
    2d2c:	09 f4       	brne	.+2      	; 0x2d30 <btn_pressed+0x2a>
    2d2e:	73 c1       	rjmp	.+742    	; 0x3016 <btn_pressed+0x310>
    2d30:	26 30       	cpi	r18, 0x06	; 6
    2d32:	09 f4       	brne	.+2      	; 0x2d36 <btn_pressed+0x30>
    2d34:	70 c1       	rjmp	.+736    	; 0x3016 <btn_pressed+0x310>
		if(btn_input == 7){
    2d36:	07 30       	cpi	r16, 0x07	; 7
    2d38:	11 05       	cpc	r17, r1
    2d3a:	09 f0       	breq	.+2      	; 0x2d3e <btn_pressed+0x38>
    2d3c:	bf c0       	rjmp	.+382    	; 0x2ebc <btn_pressed+0x1b6>
			nstate = GAME_START;
    2d3e:	82 e0       	ldi	r24, 0x02	; 2
    2d40:	80 93 f4 02 	sts	0x02F4, r24
			TOUR_STOP();
    2d44:	1b bc       	out	0x2b, r1	; 43
    2d46:	1a bc       	out	0x2a, r1	; 42
    2d48:	10 92 64 03 	sts	0x0364, r1
			nstate2 = 0;
    2d4c:	10 92 f5 02 	sts	0x02F5, r1
			SCORE_REFRESH();
    2d50:	e0 90 fa 02 	lds	r14, 0x02FA
    2d54:	f0 90 fb 02 	lds	r15, 0x02FB
    2d58:	00 91 fc 02 	lds	r16, 0x02FC
    2d5c:	10 91 fd 02 	lds	r17, 0x02FD
    2d60:	c0 90 51 03 	lds	r12, 0x0351
    2d64:	d0 90 52 03 	lds	r13, 0x0352
    2d68:	c8 01       	movw	r24, r16
    2d6a:	b7 01       	movw	r22, r14
    2d6c:	20 e1       	ldi	r18, 0x10	; 16
    2d6e:	37 e2       	ldi	r19, 0x27	; 39
    2d70:	40 e0       	ldi	r20, 0x00	; 0
    2d72:	50 e0       	ldi	r21, 0x00	; 0
    2d74:	0e 94 4c 2c 	call	0x5898	; 0x5898 <__udivmodsi4>
    2d78:	2c 5e       	subi	r18, 0xEC	; 236
    2d7a:	f6 01       	movw	r30, r12
    2d7c:	20 83       	st	Z, r18
    2d7e:	c0 90 53 03 	lds	r12, 0x0353
    2d82:	d0 90 54 03 	lds	r13, 0x0354
    2d86:	c8 01       	movw	r24, r16
    2d88:	b7 01       	movw	r22, r14
    2d8a:	28 ee       	ldi	r18, 0xE8	; 232
    2d8c:	33 e0       	ldi	r19, 0x03	; 3
    2d8e:	40 e0       	ldi	r20, 0x00	; 0
    2d90:	50 e0       	ldi	r21, 0x00	; 0
    2d92:	0e 94 4c 2c 	call	0x5898	; 0x5898 <__udivmodsi4>
    2d96:	ca 01       	movw	r24, r20
    2d98:	b9 01       	movw	r22, r18
    2d9a:	2a e0       	ldi	r18, 0x0A	; 10
    2d9c:	30 e0       	ldi	r19, 0x00	; 0
    2d9e:	40 e0       	ldi	r20, 0x00	; 0
    2da0:	50 e0       	ldi	r21, 0x00	; 0
    2da2:	0e 94 4c 2c 	call	0x5898	; 0x5898 <__udivmodsi4>
    2da6:	6c 5e       	subi	r22, 0xEC	; 236
    2da8:	f6 01       	movw	r30, r12
    2daa:	60 83       	st	Z, r22
    2dac:	c0 90 55 03 	lds	r12, 0x0355
    2db0:	d0 90 56 03 	lds	r13, 0x0356
    2db4:	c8 01       	movw	r24, r16
    2db6:	b7 01       	movw	r22, r14
    2db8:	24 e6       	ldi	r18, 0x64	; 100
    2dba:	30 e0       	ldi	r19, 0x00	; 0
    2dbc:	40 e0       	ldi	r20, 0x00	; 0
    2dbe:	50 e0       	ldi	r21, 0x00	; 0
    2dc0:	0e 94 4c 2c 	call	0x5898	; 0x5898 <__udivmodsi4>
    2dc4:	ca 01       	movw	r24, r20
    2dc6:	b9 01       	movw	r22, r18
    2dc8:	2a e0       	ldi	r18, 0x0A	; 10
    2dca:	30 e0       	ldi	r19, 0x00	; 0
    2dcc:	40 e0       	ldi	r20, 0x00	; 0
    2dce:	50 e0       	ldi	r21, 0x00	; 0
    2dd0:	0e 94 4c 2c 	call	0x5898	; 0x5898 <__udivmodsi4>
    2dd4:	6c 5e       	subi	r22, 0xEC	; 236
    2dd6:	f6 01       	movw	r30, r12
    2dd8:	60 83       	st	Z, r22
    2dda:	c0 90 57 03 	lds	r12, 0x0357
    2dde:	d0 90 58 03 	lds	r13, 0x0358
    2de2:	c8 01       	movw	r24, r16
    2de4:	b7 01       	movw	r22, r14
    2de6:	2a e0       	ldi	r18, 0x0A	; 10
    2de8:	30 e0       	ldi	r19, 0x00	; 0
    2dea:	40 e0       	ldi	r20, 0x00	; 0
    2dec:	50 e0       	ldi	r21, 0x00	; 0
    2dee:	0e 94 4c 2c 	call	0x5898	; 0x5898 <__udivmodsi4>
    2df2:	ca 01       	movw	r24, r20
    2df4:	b9 01       	movw	r22, r18
    2df6:	2a e0       	ldi	r18, 0x0A	; 10
    2df8:	30 e0       	ldi	r19, 0x00	; 0
    2dfa:	40 e0       	ldi	r20, 0x00	; 0
    2dfc:	50 e0       	ldi	r21, 0x00	; 0
    2dfe:	0e 94 4c 2c 	call	0x5898	; 0x5898 <__udivmodsi4>
    2e02:	6c 5e       	subi	r22, 0xEC	; 236
    2e04:	f6 01       	movw	r30, r12
    2e06:	60 83       	st	Z, r22
    2e08:	c0 90 59 03 	lds	r12, 0x0359
    2e0c:	d0 90 5a 03 	lds	r13, 0x035A
    2e10:	c8 01       	movw	r24, r16
    2e12:	b7 01       	movw	r22, r14
    2e14:	2a e0       	ldi	r18, 0x0A	; 10
    2e16:	30 e0       	ldi	r19, 0x00	; 0
    2e18:	40 e0       	ldi	r20, 0x00	; 0
    2e1a:	50 e0       	ldi	r21, 0x00	; 0
    2e1c:	0e 94 4c 2c 	call	0x5898	; 0x5898 <__udivmodsi4>
    2e20:	6c 5e       	subi	r22, 0xEC	; 236
    2e22:	f6 01       	movw	r30, r12
    2e24:	60 83       	st	Z, r22
    2e26:	e0 91 51 03 	lds	r30, 0x0351
    2e2a:	f0 91 52 03 	lds	r31, 0x0352
    2e2e:	85 81       	ldd	r24, Z+5	; 0x05
    2e30:	81 60       	ori	r24, 0x01	; 1
    2e32:	85 83       	std	Z+5, r24	; 0x05
    2e34:	e0 91 53 03 	lds	r30, 0x0353
    2e38:	f0 91 54 03 	lds	r31, 0x0354
    2e3c:	85 81       	ldd	r24, Z+5	; 0x05
    2e3e:	81 60       	ori	r24, 0x01	; 1
    2e40:	85 83       	std	Z+5, r24	; 0x05
    2e42:	e0 91 55 03 	lds	r30, 0x0355
    2e46:	f0 91 56 03 	lds	r31, 0x0356
    2e4a:	85 81       	ldd	r24, Z+5	; 0x05
    2e4c:	81 60       	ori	r24, 0x01	; 1
    2e4e:	85 83       	std	Z+5, r24	; 0x05
    2e50:	e0 91 57 03 	lds	r30, 0x0357
    2e54:	f0 91 58 03 	lds	r31, 0x0358
    2e58:	85 81       	ldd	r24, Z+5	; 0x05
    2e5a:	81 60       	ori	r24, 0x01	; 1
    2e5c:	85 83       	std	Z+5, r24	; 0x05
    2e5e:	e0 91 59 03 	lds	r30, 0x0359
    2e62:	f0 91 5a 03 	lds	r31, 0x035A
    2e66:	85 81       	ldd	r24, Z+5	; 0x05
    2e68:	81 60       	ori	r24, 0x01	; 1
    2e6a:	85 83       	std	Z+5, r24	; 0x05
    2e6c:	80 91 b1 02 	lds	r24, 0x02B1
    2e70:	82 60       	ori	r24, 0x02	; 2
    2e72:	80 93 b1 02 	sts	0x02B1, r24
    2e76:	eb e8       	ldi	r30, 0x8B	; 139
    2e78:	f2 e0       	ldi	r31, 0x02	; 2
		judged = 0;
	}
}
void clearLCD(char line,char pos,char len){
	unsigned char* buffer = buffer_LCD+(line*16+pos);
	while(len--) *(buffer++) = ' ';
    2e7a:	80 e2       	ldi	r24, 0x20	; 32
    2e7c:	01 c0       	rjmp	.+2      	; 0x2e80 <btn_pressed+0x17a>
    2e7e:	81 93       	st	Z+, r24
    2e80:	92 e0       	ldi	r25, 0x02	; 2
    2e82:	eb 39       	cpi	r30, 0x9B	; 155
    2e84:	f9 07       	cpc	r31, r25
    2e86:	d9 f7       	brne	.-10     	; 0x2e7e <btn_pressed+0x178>
			TOUR_STOP();
			nstate2 = 0;
			SCORE_REFRESH();
			clearLCD(0,0,16);
			clearLCD(1,0,16);
			PRINT(0,0,"00000     COMBO");
    2e88:	80 e2       	ldi	r24, 0x20	; 32
    2e8a:	01 c0       	rjmp	.+2      	; 0x2e8e <btn_pressed+0x188>
    2e8c:	81 93       	st	Z+, r24
    2e8e:	92 e0       	ldi	r25, 0x02	; 2
    2e90:	eb 3a       	cpi	r30, 0xAB	; 171
    2e92:	f9 07       	cpc	r31, r25
    2e94:	d9 f7       	brne	.-10     	; 0x2e8c <btn_pressed+0x186>
    2e96:	df 01       	movw	r26, r30
    2e98:	90 97       	sbiw	r26, 0x20	; 32
    2e9a:	ec e0       	ldi	r30, 0x0C	; 12
    2e9c:	f1 e0       	ldi	r31, 0x01	; 1
    2e9e:	8f e0       	ldi	r24, 0x0F	; 15
    2ea0:	01 90       	ld	r0, Z+
    2ea2:	0d 92       	st	X+, r0
    2ea4:	81 50       	subi	r24, 0x01	; 1
    2ea6:	e1 f7       	brne	.-8      	; 0x2ea0 <btn_pressed+0x19a>
			PRINT(1,0,"SCORE RATE [x01]");
    2ea8:	ab e9       	ldi	r26, 0x9B	; 155
    2eaa:	b2 e0       	ldi	r27, 0x02	; 2
    2eac:	ec e1       	ldi	r30, 0x1C	; 28
    2eae:	f1 e0       	ldi	r31, 0x01	; 1
    2eb0:	80 e1       	ldi	r24, 0x10	; 16
    2eb2:	01 90       	ld	r0, Z+
    2eb4:	0d 92       	st	X+, r0
    2eb6:	81 50       	subi	r24, 0x01	; 1
    2eb8:	e1 f7       	brne	.-8      	; 0x2eb2 <btn_pressed+0x1ac>
    2eba:	ad c0       	rjmp	.+346    	; 0x3016 <btn_pressed+0x310>
		} else {
			if(btn_input == 8) btn_input = dances[judge_comframe]%7;
    2ebc:	08 30       	cpi	r16, 0x08	; 8
    2ebe:	11 05       	cpc	r17, r1
    2ec0:	59 f4       	brne	.+22     	; 0x2ed8 <btn_pressed+0x1d2>
    2ec2:	e0 91 5d 03 	lds	r30, 0x035D
    2ec6:	f0 e0       	ldi	r31, 0x00	; 0
    2ec8:	ec 5f       	subi	r30, 0xFC	; 252
    2eca:	fc 4f       	sbci	r31, 0xFC	; 252
    2ecc:	80 81       	ld	r24, Z
    2ece:	67 e0       	ldi	r22, 0x07	; 7
    2ed0:	0e 94 19 2c 	call	0x5832	; 0x5832 <__udivmodqi4>
    2ed4:	09 2f       	mov	r16, r25
    2ed6:	10 e0       	ldi	r17, 0x00	; 0
			DANCE(btn_input);
    2ed8:	80 2f       	mov	r24, r16
    2eda:	8f 5f       	subi	r24, 0xFF	; 255
    2edc:	80 93 0d 03 	sts	0x030D, r24
    2ee0:	e0 91 23 03 	lds	r30, 0x0323
    2ee4:	f0 91 24 03 	lds	r31, 0x0324
    2ee8:	80 83       	st	Z, r24
    2eea:	85 81       	ldd	r24, Z+5	; 0x05
    2eec:	81 60       	ori	r24, 0x01	; 1
    2eee:	85 83       	std	Z+5, r24	; 0x05
    2ef0:	80 91 b1 02 	lds	r24, 0x02B1
    2ef4:	82 60       	ori	r24, 0x02	; 2
    2ef6:	80 93 b1 02 	sts	0x02B1, r24
			if(nstate == GAME_DANCE && nstate2 == 1){
    2efa:	24 30       	cpi	r18, 0x04	; 4
    2efc:	09 f0       	breq	.+2      	; 0x2f00 <btn_pressed+0x1fa>
    2efe:	8b c0       	rjmp	.+278    	; 0x3016 <btn_pressed+0x310>
    2f00:	20 91 f5 02 	lds	r18, 0x02F5
    2f04:	21 30       	cpi	r18, 0x01	; 1
    2f06:	09 f0       	breq	.+2      	; 0x2f0a <btn_pressed+0x204>
    2f08:	86 c0       	rjmp	.+268    	; 0x3016 <btn_pressed+0x310>
				//  !
				TOUR_PLAY(effect_sounds[btn_input-1]);
    2f0a:	f8 01       	movw	r30, r16
    2f0c:	ee 0f       	add	r30, r30
    2f0e:	ff 1f       	adc	r31, r31
    2f10:	e1 5b       	subi	r30, 0xB1	; 177
    2f12:	fd 4f       	sbci	r31, 0xFD	; 253
    2f14:	80 81       	ld	r24, Z
    2f16:	91 81       	ldd	r25, Z+1	; 0x01
    2f18:	90 93 68 03 	sts	0x0368, r25
    2f1c:	80 93 67 03 	sts	0x0367, r24
    2f20:	90 93 72 03 	sts	0x0372, r25
    2f24:	80 93 71 03 	sts	0x0371, r24
    2f28:	20 93 b0 02 	sts	0x02B0, r18
    2f2c:	20 93 64 03 	sts	0x0364, r18

				if(!judged){
    2f30:	80 91 3a 03 	lds	r24, 0x033A
    2f34:	88 23       	and	r24, r24
    2f36:	09 f0       	breq	.+2      	; 0x2f3a <btn_pressed+0x234>
    2f38:	6e c0       	rjmp	.+220    	; 0x3016 <btn_pressed+0x310>
					if((btn_input!=0 && (me_danced || (btn_input != dances[judge_comframe])))){
    2f3a:	01 15       	cp	r16, r1
    2f3c:	11 05       	cpc	r17, r1
    2f3e:	91 f0       	breq	.+36     	; 0x2f64 <btn_pressed+0x25e>
    2f40:	80 91 4f 03 	lds	r24, 0x034F
    2f44:	88 23       	and	r24, r24
    2f46:	51 f4       	brne	.+20     	; 0x2f5c <btn_pressed+0x256>
    2f48:	e0 91 5d 03 	lds	r30, 0x035D
    2f4c:	f0 e0       	ldi	r31, 0x00	; 0
    2f4e:	ec 5f       	subi	r30, 0xFC	; 252
    2f50:	fc 4f       	sbci	r31, 0xFC	; 252
    2f52:	80 81       	ld	r24, Z
    2f54:	90 e0       	ldi	r25, 0x00	; 0
    2f56:	08 17       	cp	r16, r24
    2f58:	19 07       	cpc	r17, r25
    2f5a:	21 f0       	breq	.+8      	; 0x2f64 <btn_pressed+0x25e>
						doeffect(4); // bad!
    2f5c:	84 e0       	ldi	r24, 0x04	; 4
    2f5e:	0e 94 b2 10 	call	0x2164	; 0x2164 <doeffect>
    2f62:	56 c0       	rjmp	.+172    	; 0x3010 <btn_pressed+0x30a>
						me_danced = 1;
					} else if(!(!me_danced && btn_input==0 && dances[judge_comframe])) {
    2f64:	80 91 4f 03 	lds	r24, 0x034F
    2f68:	88 23       	and	r24, r24
    2f6a:	61 f4       	brne	.+24     	; 0x2f84 <btn_pressed+0x27e>
    2f6c:	01 15       	cp	r16, r1
    2f6e:	11 05       	cpc	r17, r1
    2f70:	49 f4       	brne	.+18     	; 0x2f84 <btn_pressed+0x27e>
    2f72:	e0 91 5d 03 	lds	r30, 0x035D
    2f76:	f0 e0       	ldi	r31, 0x00	; 0
    2f78:	ec 5f       	subi	r30, 0xFC	; 252
    2f7a:	fc 4f       	sbci	r31, 0xFC	; 252
    2f7c:	80 81       	ld	r24, Z
    2f7e:	88 23       	and	r24, r24
    2f80:	09 f0       	breq	.+2      	; 0x2f84 <btn_pressed+0x27e>
    2f82:	49 c0       	rjmp	.+146    	; 0x3016 <btn_pressed+0x310>
						unsigned int frame = (next_judge_end_frame-TIMER3_current_frame)/2;
    2f84:	e0 91 25 03 	lds	r30, 0x0325
    2f88:	f0 91 26 03 	lds	r31, 0x0326
    2f8c:	80 91 e6 06 	lds	r24, 0x06E6
    2f90:	90 91 e7 06 	lds	r25, 0x06E7
    2f94:	e8 1b       	sub	r30, r24
    2f96:	f9 0b       	sbc	r31, r25
    2f98:	f6 95       	lsr	r31
    2f9a:	e7 95       	ror	r30
						if(frame >= dance_frame_tick*4/5){
    2f9c:	40 91 02 03 	lds	r20, 0x0302
    2fa0:	24 2f       	mov	r18, r20
    2fa2:	30 e0       	ldi	r19, 0x00	; 0
    2fa4:	c9 01       	movw	r24, r18
    2fa6:	88 0f       	add	r24, r24
    2fa8:	99 1f       	adc	r25, r25
    2faa:	88 0f       	add	r24, r24
    2fac:	99 1f       	adc	r25, r25
    2fae:	65 e0       	ldi	r22, 0x05	; 5
    2fb0:	70 e0       	ldi	r23, 0x00	; 0
    2fb2:	0e 94 39 2c 	call	0x5872	; 0x5872 <__divmodhi4>
    2fb6:	e6 17       	cp	r30, r22
    2fb8:	f7 07       	cpc	r31, r23
    2fba:	10 f0       	brcs	.+4      	; 0x2fc0 <btn_pressed+0x2ba>
							doeffect(5);
    2fbc:	85 e0       	ldi	r24, 0x05	; 5
    2fbe:	24 c0       	rjmp	.+72     	; 0x3008 <btn_pressed+0x302>
						} else if(frame >= dance_frame_tick*3/5){
    2fc0:	e9 01       	movw	r28, r18
    2fc2:	cc 0f       	add	r28, r28
    2fc4:	dd 1f       	adc	r29, r29
    2fc6:	ce 01       	movw	r24, r28
    2fc8:	82 0f       	add	r24, r18
    2fca:	93 1f       	adc	r25, r19
    2fcc:	65 e0       	ldi	r22, 0x05	; 5
    2fce:	70 e0       	ldi	r23, 0x00	; 0
    2fd0:	0e 94 39 2c 	call	0x5872	; 0x5872 <__divmodhi4>
    2fd4:	e6 17       	cp	r30, r22
    2fd6:	f7 07       	cpc	r31, r23
    2fd8:	10 f0       	brcs	.+4      	; 0x2fde <btn_pressed+0x2d8>
							doeffect(4);
    2fda:	84 e0       	ldi	r24, 0x04	; 4
    2fdc:	15 c0       	rjmp	.+42     	; 0x3008 <btn_pressed+0x302>
						} else if(frame>= dance_frame_tick*2/5){
    2fde:	ce 01       	movw	r24, r28
    2fe0:	65 e0       	ldi	r22, 0x05	; 5
    2fe2:	70 e0       	ldi	r23, 0x00	; 0
    2fe4:	0e 94 39 2c 	call	0x5872	; 0x5872 <__divmodhi4>
    2fe8:	e6 17       	cp	r30, r22
    2fea:	f7 07       	cpc	r31, r23
    2fec:	10 f0       	brcs	.+4      	; 0x2ff2 <btn_pressed+0x2ec>
							doeffect(3);
    2fee:	83 e0       	ldi	r24, 0x03	; 3
    2ff0:	0b c0       	rjmp	.+22     	; 0x3008 <btn_pressed+0x302>
						} else if(frame >= dance_frame_tick/5){
    2ff2:	84 2f       	mov	r24, r20
    2ff4:	65 e0       	ldi	r22, 0x05	; 5
    2ff6:	0e 94 19 2c 	call	0x5832	; 0x5832 <__udivmodqi4>
    2ffa:	90 e0       	ldi	r25, 0x00	; 0
    2ffc:	e8 17       	cp	r30, r24
    2ffe:	f9 07       	cpc	r31, r25
    3000:	10 f0       	brcs	.+4      	; 0x3006 <btn_pressed+0x300>
							doeffect(2);
    3002:	82 e0       	ldi	r24, 0x02	; 2
    3004:	01 c0       	rjmp	.+2      	; 0x3008 <btn_pressed+0x302>
						} else {
							doeffect(1);
    3006:	81 e0       	ldi	r24, 0x01	; 1
    3008:	0e 94 b2 10 	call	0x2164	; 0x2164 <doeffect>
						}
						if(btn_input) me_danced = 1;
    300c:	01 2b       	or	r16, r17
    300e:	19 f0       	breq	.+6      	; 0x3016 <btn_pressed+0x310>
    3010:	81 e0       	ldi	r24, 0x01	; 1
    3012:	80 93 4f 03 	sts	0x034F, r24
				}

			}
		}
	}
}
    3016:	df 91       	pop	r29
    3018:	cf 91       	pop	r28
    301a:	1f 91       	pop	r17
    301c:	0f 91       	pop	r16
    301e:	ff 90       	pop	r15
    3020:	ef 90       	pop	r14
    3022:	df 90       	pop	r13
    3024:	cf 90       	pop	r12
    3026:	08 95       	ret

00003028 <main>:

int main(void){
    3028:	2f 92       	push	r2
    302a:	3f 92       	push	r3
    302c:	4f 92       	push	r4
    302e:	5f 92       	push	r5
    3030:	6f 92       	push	r6
    3032:	7f 92       	push	r7
    3034:	8f 92       	push	r8
    3036:	9f 92       	push	r9
    3038:	af 92       	push	r10
    303a:	bf 92       	push	r11
    303c:	cf 92       	push	r12
    303e:	df 92       	push	r13
    3040:	ef 92       	push	r14
    3042:	ff 92       	push	r15
    3044:	0f 93       	push	r16
    3046:	1f 93       	push	r17
    3048:	df 93       	push	r29
    304a:	cf 93       	push	r28
    304c:	00 d0       	rcall	.+0      	; 0x304e <main+0x26>
    304e:	00 d0       	rcall	.+0      	; 0x3050 <main+0x28>
    3050:	00 d0       	rcall	.+0      	; 0x3052 <main+0x2a>
    3052:	cd b7       	in	r28, 0x3d	; 61
    3054:	de b7       	in	r29, 0x3e	; 62
	DDRB = 0xFF;
    3056:	2f ef       	ldi	r18, 0xFF	; 255
    3058:	27 bb       	out	0x17, r18	; 23
	TOUR_INITIALIZE();
    305a:	bd 9a       	sbi	0x17, 5	; 23
    305c:	80 e4       	ldi	r24, 0x40	; 64
    305e:	8f bd       	out	0x2f, r24	; 47
    3060:	8a e0       	ldi	r24, 0x0A	; 10
    3062:	8e bd       	out	0x2e, r24	; 46
	TIMER3_INITIALIZE();
    3064:	10 92 8b 00 	sts	0x008B, r1
    3068:	88 e0       	ldi	r24, 0x08	; 8
    306a:	80 93 8a 00 	sts	0x008A, r24
    306e:	80 91 7d 00 	lds	r24, 0x007D
    3072:	80 61       	ori	r24, 0x10	; 16
    3074:	80 93 7d 00 	sts	0x007D, r24
    3078:	80 e0       	ldi	r24, 0x00	; 0
    307a:	9f e0       	ldi	r25, 0x0F	; 15
    307c:	90 93 87 00 	sts	0x0087, r25
    3080:	80 93 86 00 	sts	0x0086, r24
	DDR_PUSH_BUTTON	=	0x00;
    3084:	1a ba       	out	0x1a, r1	; 26
	OLED_INITIALIZE();
    3086:	20 93 61 00 	sts	0x0061, r18
    308a:	21 bb       	out	0x11, r18	; 17
    308c:	8f e1       	ldi	r24, 0x1F	; 31
    308e:	80 93 62 00 	sts	0x0062, r24
    3092:	12 ba       	out	0x12, r1	; 18
    3094:	80 91 62 00 	lds	r24, 0x0062
    3098:	8d 7f       	andi	r24, 0xFD	; 253
    309a:	80 93 62 00 	sts	0x0062, r24
    309e:	10 92 7a 03 	sts	0x037A, r1
    30a2:	10 92 79 03 	sts	0x0379, r1
    30a6:	10 92 82 03 	sts	0x0382, r1
    30aa:	10 92 81 03 	sts	0x0381, r1
    30ae:	10 92 7c 03 	sts	0x037C, r1
    30b2:	10 92 7b 03 	sts	0x037B, r1
    30b6:	10 92 84 03 	sts	0x0384, r1
    30ba:	10 92 83 03 	sts	0x0383, r1
    30be:	10 92 7e 03 	sts	0x037E, r1
    30c2:	10 92 7d 03 	sts	0x037D, r1
    30c6:	10 92 86 03 	sts	0x0386, r1
    30ca:	10 92 85 03 	sts	0x0385, r1
    30ce:	49 e8       	ldi	r20, 0x89	; 137
    30d0:	53 e0       	ldi	r21, 0x03	; 3
    30d2:	8b ea       	ldi	r24, 0xAB	; 171
    30d4:	95 e0       	ldi	r25, 0x05	; 5
    30d6:	90 93 74 03 	sts	0x0374, r25
    30da:	80 93 73 03 	sts	0x0373, r24
    30de:	90 93 94 03 	sts	0x0394, r25
    30e2:	80 93 93 03 	sts	0x0393, r24
    30e6:	9a 01       	movw	r18, r20
    30e8:	22 5f       	subi	r18, 0xF2	; 242
    30ea:	3f 4f       	sbci	r19, 0xFF	; 255
    30ec:	30 93 96 03 	sts	0x0396, r19
    30f0:	20 93 95 03 	sts	0x0395, r18
    30f4:	8d e9       	ldi	r24, 0x9D	; 157
    30f6:	95 e0       	ldi	r25, 0x05	; 5
    30f8:	90 93 b6 05 	sts	0x05B6, r25
    30fc:	80 93 b5 05 	sts	0x05B5, r24
    3100:	50 93 b8 05 	sts	0x05B8, r21
    3104:	40 93 b7 05 	sts	0x05B7, r20
    3108:	f9 01       	movw	r30, r18
    310a:	09 c0       	rjmp	.+18     	; 0x311e <main+0xf6>
    310c:	cf 01       	movw	r24, r30
    310e:	0e 97       	sbiw	r24, 0x0e	; 14
    3110:	93 87       	std	Z+11, r25	; 0x0b
    3112:	82 87       	std	Z+10, r24	; 0x0a
			}
		}
	}
}

int main(void){
    3114:	cf 01       	movw	r24, r30
    3116:	0e 96       	adiw	r24, 0x0e	; 14
	DDRB = 0xFF;
	TOUR_INITIALIZE();
	TIMER3_INITIALIZE();
	DDR_PUSH_BUTTON	=	0x00;
	OLED_INITIALIZE();
    3118:	95 87       	std	Z+13, r25	; 0x0d
    311a:	84 87       	std	Z+12, r24	; 0x0c
    311c:	fc 01       	movw	r30, r24
    311e:	80 91 73 03 	lds	r24, 0x0373
    3122:	90 91 74 03 	lds	r25, 0x0374
    3126:	e8 17       	cp	r30, r24
    3128:	f9 07       	cpc	r31, r25
    312a:	81 f7       	brne	.-32     	; 0x310c <main+0xe4>
    312c:	10 92 78 03 	sts	0x0378, r1
    3130:	10 92 77 03 	sts	0x0377, r1
    3134:	80 91 62 00 	lds	r24, 0x0062
    3138:	82 60       	ori	r24, 0x02	; 2
    313a:	80 93 62 00 	sts	0x0062, r24
    313e:	6b e1       	ldi	r22, 0x1B	; 27
    3140:	60 93 62 00 	sts	0x0062, r22
    3144:	3a e1       	ldi	r19, 0x1A	; 26
    3146:	30 93 62 00 	sts	0x0062, r19
    314a:	42 e1       	ldi	r20, 0x12	; 18
    314c:	40 93 62 00 	sts	0x0062, r20
    3150:	a1 e0       	ldi	r26, 0x01	; 1
    3152:	a2 bb       	out	0x12, r26	; 18
    3154:	00 00       	nop
    3156:	30 93 62 00 	sts	0x0062, r19
    315a:	5e e1       	ldi	r21, 0x1E	; 30
    315c:	50 93 62 00 	sts	0x0062, r21
    3160:	9f e1       	ldi	r25, 0x1F	; 31
    3162:	90 93 62 00 	sts	0x0062, r25
    3166:	60 93 62 00 	sts	0x0062, r22
    316a:	30 93 62 00 	sts	0x0062, r19
    316e:	40 93 62 00 	sts	0x0062, r20
    3172:	8d ef       	ldi	r24, 0xFD	; 253
    3174:	82 bb       	out	0x12, r24	; 18
    3176:	00 00       	nop
    3178:	30 93 62 00 	sts	0x0062, r19
    317c:	50 93 62 00 	sts	0x0062, r21
    3180:	90 93 62 00 	sts	0x0062, r25
    3184:	26 e1       	ldi	r18, 0x16	; 22
    3186:	20 93 62 00 	sts	0x0062, r18
    318a:	42 bb       	out	0x12, r20	; 18
    318c:	00 00       	nop
    318e:	90 93 62 00 	sts	0x0062, r25
    3192:	60 93 62 00 	sts	0x0062, r22
    3196:	30 93 62 00 	sts	0x0062, r19
    319a:	40 93 62 00 	sts	0x0062, r20
    319e:	82 bb       	out	0x12, r24	; 18
    31a0:	00 00       	nop
    31a2:	30 93 62 00 	sts	0x0062, r19
    31a6:	50 93 62 00 	sts	0x0062, r21
    31aa:	90 93 62 00 	sts	0x0062, r25
    31ae:	20 93 62 00 	sts	0x0062, r18
    31b2:	73 eb       	ldi	r23, 0xB3	; 179
    31b4:	72 bb       	out	0x12, r23	; 18
    31b6:	00 00       	nop
    31b8:	90 93 62 00 	sts	0x0062, r25
    31bc:	60 93 62 00 	sts	0x0062, r22
    31c0:	30 93 62 00 	sts	0x0062, r19
    31c4:	40 93 62 00 	sts	0x0062, r20
    31c8:	80 e1       	ldi	r24, 0x10	; 16
    31ca:	a8 2e       	mov	r10, r24
    31cc:	a2 ba       	out	0x12, r10	; 18
    31ce:	00 00       	nop
    31d0:	30 93 62 00 	sts	0x0062, r19
    31d4:	50 93 62 00 	sts	0x0062, r21
    31d8:	90 93 62 00 	sts	0x0062, r25
    31dc:	60 93 62 00 	sts	0x0062, r22
    31e0:	30 93 62 00 	sts	0x0062, r19
    31e4:	40 93 62 00 	sts	0x0062, r20
    31e8:	82 ed       	ldi	r24, 0xD2	; 210
    31ea:	82 bb       	out	0x12, r24	; 18
    31ec:	00 00       	nop
    31ee:	30 93 62 00 	sts	0x0062, r19
    31f2:	50 93 62 00 	sts	0x0062, r21
    31f6:	90 93 62 00 	sts	0x0062, r25
    31fa:	20 93 62 00 	sts	0x0062, r18
    31fe:	a2 ba       	out	0x12, r10	; 18
    3200:	00 00       	nop
    3202:	90 93 62 00 	sts	0x0062, r25
    3206:	60 93 62 00 	sts	0x0062, r22
    320a:	30 93 62 00 	sts	0x0062, r19
    320e:	40 93 62 00 	sts	0x0062, r20
    3212:	8a ec       	ldi	r24, 0xCA	; 202
    3214:	82 bb       	out	0x12, r24	; 18
    3216:	00 00       	nop
    3218:	30 93 62 00 	sts	0x0062, r19
    321c:	50 93 62 00 	sts	0x0062, r21
    3220:	90 93 62 00 	sts	0x0062, r25
    3224:	20 93 62 00 	sts	0x0062, r18
    3228:	0f e7       	ldi	r16, 0x7F	; 127
    322a:	b0 2e       	mov	r11, r16
    322c:	b2 ba       	out	0x12, r11	; 18
    322e:	00 00       	nop
    3230:	90 93 62 00 	sts	0x0062, r25
    3234:	60 93 62 00 	sts	0x0062, r22
    3238:	30 93 62 00 	sts	0x0062, r19
    323c:	40 93 62 00 	sts	0x0062, r20
    3240:	88 ec       	ldi	r24, 0xC8	; 200
    3242:	82 bb       	out	0x12, r24	; 18
    3244:	00 00       	nop
    3246:	30 93 62 00 	sts	0x0062, r19
    324a:	50 93 62 00 	sts	0x0062, r21
    324e:	90 93 62 00 	sts	0x0062, r25
    3252:	20 93 62 00 	sts	0x0062, r18
    3256:	12 ba       	out	0x12, r1	; 18
    3258:	00 00       	nop
    325a:	90 93 62 00 	sts	0x0062, r25
    325e:	60 93 62 00 	sts	0x0062, r22
    3262:	30 93 62 00 	sts	0x0062, r19
    3266:	40 93 62 00 	sts	0x0062, r20
    326a:	86 e3       	ldi	r24, 0x36	; 54
    326c:	82 bb       	out	0x12, r24	; 18
    326e:	00 00       	nop
    3270:	30 93 62 00 	sts	0x0062, r19
    3274:	50 93 62 00 	sts	0x0062, r21
    3278:	90 93 62 00 	sts	0x0062, r25
    327c:	20 93 62 00 	sts	0x0062, r18
    3280:	88 e8       	ldi	r24, 0x88	; 136
    3282:	82 bb       	out	0x12, r24	; 18
    3284:	00 00       	nop
    3286:	90 93 62 00 	sts	0x0062, r25
    328a:	20 93 62 00 	sts	0x0062, r18
    328e:	a2 bb       	out	0x12, r26	; 18
    3290:	00 00       	nop
    3292:	90 93 62 00 	sts	0x0062, r25
    3296:	60 93 62 00 	sts	0x0062, r22
    329a:	30 93 62 00 	sts	0x0062, r19
    329e:	40 93 62 00 	sts	0x0062, r20
    32a2:	8a e3       	ldi	r24, 0x3A	; 58
    32a4:	82 bb       	out	0x12, r24	; 18
    32a6:	00 00       	nop
    32a8:	30 93 62 00 	sts	0x0062, r19
    32ac:	50 93 62 00 	sts	0x0062, r21
    32b0:	90 93 62 00 	sts	0x0062, r25
    32b4:	20 93 62 00 	sts	0x0062, r18
    32b8:	85 e0       	ldi	r24, 0x05	; 5
    32ba:	82 bb       	out	0x12, r24	; 18
    32bc:	00 00       	nop
    32be:	90 93 62 00 	sts	0x0062, r25
    32c2:	60 93 62 00 	sts	0x0062, r22
    32c6:	30 93 62 00 	sts	0x0062, r19
    32ca:	40 93 62 00 	sts	0x0062, r20
    32ce:	85 e3       	ldi	r24, 0x35	; 53
    32d0:	82 bb       	out	0x12, r24	; 18
    32d2:	00 00       	nop
    32d4:	30 93 62 00 	sts	0x0062, r19
    32d8:	50 93 62 00 	sts	0x0062, r21
    32dc:	90 93 62 00 	sts	0x0062, r25
    32e0:	20 93 62 00 	sts	0x0062, r18
    32e4:	a2 bb       	out	0x12, r26	; 18
    32e6:	00 00       	nop
    32e8:	90 93 62 00 	sts	0x0062, r25
    32ec:	60 93 62 00 	sts	0x0062, r22
    32f0:	30 93 62 00 	sts	0x0062, r19
    32f4:	40 93 62 00 	sts	0x0062, r20
    32f8:	72 bb       	out	0x12, r23	; 18
    32fa:	00 00       	nop
    32fc:	30 93 62 00 	sts	0x0062, r19
    3300:	50 93 62 00 	sts	0x0062, r21
    3304:	90 93 62 00 	sts	0x0062, r25
    3308:	20 93 62 00 	sts	0x0062, r18
    330c:	13 e0       	ldi	r17, 0x03	; 3
    330e:	61 2e       	mov	r6, r17
    3310:	62 ba       	out	0x12, r6	; 18
    3312:	00 00       	nop
    3314:	90 93 62 00 	sts	0x0062, r25
    3318:	60 93 62 00 	sts	0x0062, r22
    331c:	30 93 62 00 	sts	0x0062, r19
    3320:	40 93 62 00 	sts	0x0062, r20
    3324:	8a eb       	ldi	r24, 0xBA	; 186
    3326:	82 bb       	out	0x12, r24	; 18
    3328:	00 00       	nop
    332a:	30 93 62 00 	sts	0x0062, r19
    332e:	50 93 62 00 	sts	0x0062, r21
    3332:	90 93 62 00 	sts	0x0062, r25
    3336:	20 93 62 00 	sts	0x0062, r18
    333a:	83 ec       	ldi	r24, 0xC3	; 195
    333c:	82 bb       	out	0x12, r24	; 18
    333e:	00 00       	nop
    3340:	90 93 62 00 	sts	0x0062, r25
    3344:	60 93 62 00 	sts	0x0062, r22
    3348:	30 93 62 00 	sts	0x0062, r19
    334c:	40 93 62 00 	sts	0x0062, r20
    3350:	8b eb       	ldi	r24, 0xBB	; 187
    3352:	82 bb       	out	0x12, r24	; 18
    3354:	00 00       	nop
    3356:	30 93 62 00 	sts	0x0062, r19
    335a:	50 93 62 00 	sts	0x0062, r21
    335e:	90 93 62 00 	sts	0x0062, r25
    3362:	20 93 62 00 	sts	0x0062, r18
    3366:	b5 e5       	ldi	r27, 0x55	; 85
    3368:	7b 2e       	mov	r7, r27
    336a:	72 ba       	out	0x12, r7	; 18
    336c:	00 00       	nop
    336e:	90 93 62 00 	sts	0x0062, r25
    3372:	60 93 62 00 	sts	0x0062, r22
    3376:	30 93 62 00 	sts	0x0062, r19
    337a:	40 93 62 00 	sts	0x0062, r20
    337e:	8c eb       	ldi	r24, 0xBC	; 188
    3380:	82 bb       	out	0x12, r24	; 18
    3382:	00 00       	nop
    3384:	30 93 62 00 	sts	0x0062, r19
    3388:	50 93 62 00 	sts	0x0062, r21
    338c:	90 93 62 00 	sts	0x0062, r25
    3390:	20 93 62 00 	sts	0x0062, r18
    3394:	87 e8       	ldi	r24, 0x87	; 135
    3396:	82 bb       	out	0x12, r24	; 18
    3398:	00 00       	nop
    339a:	90 93 62 00 	sts	0x0062, r25
    339e:	60 93 62 00 	sts	0x0062, r22
    33a2:	30 93 62 00 	sts	0x0062, r19
    33a6:	40 93 62 00 	sts	0x0062, r20
    33aa:	f1 e5       	ldi	r31, 0x51	; 81
    33ac:	7f 2e       	mov	r7, r31
    33ae:	72 ba       	out	0x12, r7	; 18
    33b0:	00 00       	nop
    33b2:	30 93 62 00 	sts	0x0062, r19
    33b6:	50 93 62 00 	sts	0x0062, r21
    33ba:	90 93 62 00 	sts	0x0062, r25
    33be:	20 93 62 00 	sts	0x0062, r18
    33c2:	80 ef       	ldi	r24, 0xF0	; 240
    33c4:	82 bb       	out	0x12, r24	; 18
    33c6:	00 00       	nop
    33c8:	90 93 62 00 	sts	0x0062, r25
    33cc:	60 93 62 00 	sts	0x0062, r22
    33d0:	30 93 62 00 	sts	0x0062, r19
    33d4:	40 93 62 00 	sts	0x0062, r20
    33d8:	8e eb       	ldi	r24, 0xBE	; 190
    33da:	82 bb       	out	0x12, r24	; 18
    33dc:	00 00       	nop
    33de:	30 93 62 00 	sts	0x0062, r19
    33e2:	50 93 62 00 	sts	0x0062, r21
    33e6:	90 93 62 00 	sts	0x0062, r25
    33ea:	20 93 62 00 	sts	0x0062, r18
    33ee:	a2 bb       	out	0x12, r26	; 18
    33f0:	00 00       	nop
    33f2:	90 93 62 00 	sts	0x0062, r25
    33f6:	20 93 62 00 	sts	0x0062, r18
    33fa:	e4 e0       	ldi	r30, 0x04	; 4
    33fc:	2e 2e       	mov	r2, r30
    33fe:	22 ba       	out	0x12, r2	; 18
    3400:	00 00       	nop
    3402:	90 93 62 00 	sts	0x0062, r25
    3406:	20 93 62 00 	sts	0x0062, r18
    340a:	77 e0       	ldi	r23, 0x07	; 7
    340c:	87 2e       	mov	r8, r23
    340e:	82 ba       	out	0x12, r8	; 18
    3410:	00 00       	nop
    3412:	90 93 62 00 	sts	0x0062, r25
    3416:	20 93 62 00 	sts	0x0062, r18
    341a:	89 e0       	ldi	r24, 0x09	; 9
    341c:	58 2e       	mov	r5, r24
    341e:	52 ba       	out	0x12, r5	; 18
    3420:	00 00       	nop
    3422:	90 93 62 00 	sts	0x0062, r25
    3426:	20 93 62 00 	sts	0x0062, r18
    342a:	0b e0       	ldi	r16, 0x0B	; 11
    342c:	40 2e       	mov	r4, r16
    342e:	42 ba       	out	0x12, r4	; 18
    3430:	00 00       	nop
    3432:	90 93 62 00 	sts	0x0062, r25
    3436:	20 93 62 00 	sts	0x0062, r18
    343a:	1c e0       	ldi	r17, 0x0C	; 12
    343c:	91 2e       	mov	r9, r17
    343e:	92 ba       	out	0x12, r9	; 18
    3440:	00 00       	nop
    3442:	90 93 62 00 	sts	0x0062, r25
    3446:	20 93 62 00 	sts	0x0062, r18
    344a:	8d e0       	ldi	r24, 0x0D	; 13
    344c:	82 bb       	out	0x12, r24	; 18
    344e:	00 00       	nop
    3450:	90 93 62 00 	sts	0x0062, r25
    3454:	20 93 62 00 	sts	0x0062, r18
    3458:	1e e0       	ldi	r17, 0x0E	; 14
    345a:	12 bb       	out	0x12, r17	; 18
    345c:	00 00       	nop
    345e:	90 93 62 00 	sts	0x0062, r25
    3462:	20 93 62 00 	sts	0x0062, r18
    3466:	bf e0       	ldi	r27, 0x0F	; 15
    3468:	b2 bb       	out	0x12, r27	; 18
    346a:	00 00       	nop
    346c:	90 93 62 00 	sts	0x0062, r25
    3470:	20 93 62 00 	sts	0x0062, r18
    3474:	a2 ba       	out	0x12, r10	; 18
    3476:	00 00       	nop
    3478:	90 93 62 00 	sts	0x0062, r25
    347c:	20 93 62 00 	sts	0x0062, r18
    3480:	b1 e1       	ldi	r27, 0x11	; 17
    3482:	3b 2e       	mov	r3, r27
    3484:	32 ba       	out	0x12, r3	; 18
    3486:	00 00       	nop
    3488:	90 93 62 00 	sts	0x0062, r25
    348c:	20 93 62 00 	sts	0x0062, r18
    3490:	42 bb       	out	0x12, r20	; 18
    3492:	00 00       	nop
    3494:	90 93 62 00 	sts	0x0062, r25
    3498:	20 93 62 00 	sts	0x0062, r18
    349c:	f3 e1       	ldi	r31, 0x13	; 19
    349e:	df 2e       	mov	r13, r31
    34a0:	d2 ba       	out	0x12, r13	; 18
    34a2:	00 00       	nop
    34a4:	90 93 62 00 	sts	0x0062, r25
    34a8:	20 93 62 00 	sts	0x0062, r18
    34ac:	22 bb       	out	0x12, r18	; 18
    34ae:	00 00       	nop
    34b0:	90 93 62 00 	sts	0x0062, r25
    34b4:	20 93 62 00 	sts	0x0062, r18
    34b8:	8d e1       	ldi	r24, 0x1D	; 29
    34ba:	82 bb       	out	0x12, r24	; 18
    34bc:	00 00       	nop
    34be:	90 93 62 00 	sts	0x0062, r25
    34c2:	20 93 62 00 	sts	0x0062, r18
    34c6:	b1 e2       	ldi	r27, 0x21	; 33
    34c8:	b2 bb       	out	0x12, r27	; 18
    34ca:	00 00       	nop
    34cc:	90 93 62 00 	sts	0x0062, r25
    34d0:	20 93 62 00 	sts	0x0062, r18
    34d4:	e3 e2       	ldi	r30, 0x23	; 35
    34d6:	fe 2e       	mov	r15, r30
    34d8:	f2 ba       	out	0x12, r15	; 18
    34da:	00 00       	nop
    34dc:	90 93 62 00 	sts	0x0062, r25
    34e0:	20 93 62 00 	sts	0x0062, r18
    34e4:	84 e2       	ldi	r24, 0x24	; 36
    34e6:	82 bb       	out	0x12, r24	; 18
    34e8:	00 00       	nop
    34ea:	90 93 62 00 	sts	0x0062, r25
    34ee:	20 93 62 00 	sts	0x0062, r18
    34f2:	8e e2       	ldi	r24, 0x2E	; 46
    34f4:	82 bb       	out	0x12, r24	; 18
    34f6:	00 00       	nop
    34f8:	90 93 62 00 	sts	0x0062, r25
    34fc:	20 93 62 00 	sts	0x0062, r18
    3500:	71 e3       	ldi	r23, 0x31	; 49
    3502:	e7 2e       	mov	r14, r23
    3504:	e2 ba       	out	0x12, r14	; 18
    3506:	00 00       	nop
    3508:	90 93 62 00 	sts	0x0062, r25
    350c:	20 93 62 00 	sts	0x0062, r18
    3510:	e2 e3       	ldi	r30, 0x32	; 50
    3512:	e2 bb       	out	0x12, r30	; 18
    3514:	00 00       	nop
    3516:	90 93 62 00 	sts	0x0062, r25
    351a:	20 93 62 00 	sts	0x0062, r18
    351e:	e7 e3       	ldi	r30, 0x37	; 55
    3520:	e2 bb       	out	0x12, r30	; 18
    3522:	00 00       	nop
    3524:	90 93 62 00 	sts	0x0062, r25
    3528:	20 93 62 00 	sts	0x0062, r18
    352c:	f1 e4       	ldi	r31, 0x41	; 65
    352e:	f2 bb       	out	0x12, r31	; 18
    3530:	00 00       	nop
    3532:	90 93 62 00 	sts	0x0062, r25
    3536:	20 93 62 00 	sts	0x0062, r18
    353a:	73 e4       	ldi	r23, 0x43	; 67
    353c:	72 bb       	out	0x12, r23	; 18
    353e:	00 00       	nop
    3540:	90 93 62 00 	sts	0x0062, r25
    3544:	20 93 62 00 	sts	0x0062, r18
    3548:	8c e4       	ldi	r24, 0x4C	; 76
    354a:	68 2e       	mov	r6, r24
    354c:	62 ba       	out	0x12, r6	; 18
    354e:	00 00       	nop
    3550:	90 93 62 00 	sts	0x0062, r25
    3554:	20 93 62 00 	sts	0x0062, r18
    3558:	72 ba       	out	0x12, r7	; 18
    355a:	00 00       	nop
    355c:	90 93 62 00 	sts	0x0062, r25
    3560:	20 93 62 00 	sts	0x0062, r18
    3564:	84 e5       	ldi	r24, 0x54	; 84
    3566:	82 bb       	out	0x12, r24	; 18
    3568:	00 00       	nop
    356a:	90 93 62 00 	sts	0x0062, r25
    356e:	20 93 62 00 	sts	0x0062, r18
    3572:	01 e6       	ldi	r16, 0x61	; 97
    3574:	c0 2e       	mov	r12, r16
    3576:	c2 ba       	out	0x12, r12	; 18
    3578:	00 00       	nop
    357a:	90 93 62 00 	sts	0x0062, r25
    357e:	20 93 62 00 	sts	0x0062, r18
    3582:	88 e6       	ldi	r24, 0x68	; 104
    3584:	82 bb       	out	0x12, r24	; 18
    3586:	00 00       	nop
    3588:	90 93 62 00 	sts	0x0062, r25
    358c:	20 93 62 00 	sts	0x0062, r18
    3590:	8f e6       	ldi	r24, 0x6F	; 111
    3592:	82 bb       	out	0x12, r24	; 18
    3594:	00 00       	nop
    3596:	90 93 62 00 	sts	0x0062, r25
    359a:	20 93 62 00 	sts	0x0062, r18
    359e:	85 e7       	ldi	r24, 0x75	; 117
    35a0:	82 bb       	out	0x12, r24	; 18
    35a2:	00 00       	nop
    35a4:	90 93 62 00 	sts	0x0062, r25
    35a8:	20 93 62 00 	sts	0x0062, r18
    35ac:	b2 ba       	out	0x12, r11	; 18
    35ae:	00 00       	nop
    35b0:	90 93 62 00 	sts	0x0062, r25
    35b4:	20 93 62 00 	sts	0x0062, r18
    35b8:	a2 bb       	out	0x12, r26	; 18
    35ba:	00 00       	nop
    35bc:	90 93 62 00 	sts	0x0062, r25
    35c0:	20 93 62 00 	sts	0x0062, r18
    35c4:	88 e0       	ldi	r24, 0x08	; 8
    35c6:	82 bb       	out	0x12, r24	; 18
    35c8:	00 00       	nop
    35ca:	90 93 62 00 	sts	0x0062, r25
    35ce:	20 93 62 00 	sts	0x0062, r18
    35d2:	12 bb       	out	0x12, r17	; 18
    35d4:	00 00       	nop
    35d6:	90 93 62 00 	sts	0x0062, r25
    35da:	20 93 62 00 	sts	0x0062, r18
    35de:	d2 ba       	out	0x12, r13	; 18
    35e0:	00 00       	nop
    35e2:	90 93 62 00 	sts	0x0062, r25
    35e6:	20 93 62 00 	sts	0x0062, r18
    35ea:	87 e1       	ldi	r24, 0x17	; 23
    35ec:	82 bb       	out	0x12, r24	; 18
    35ee:	00 00       	nop
    35f0:	90 93 62 00 	sts	0x0062, r25
    35f4:	20 93 62 00 	sts	0x0062, r18
    35f8:	32 bb       	out	0x12, r19	; 18
    35fa:	00 00       	nop
    35fc:	90 93 62 00 	sts	0x0062, r25
    3600:	20 93 62 00 	sts	0x0062, r18
    3604:	8c e1       	ldi	r24, 0x1C	; 28
    3606:	82 bb       	out	0x12, r24	; 18
    3608:	00 00       	nop
    360a:	90 93 62 00 	sts	0x0062, r25
    360e:	20 93 62 00 	sts	0x0062, r18
    3612:	52 bb       	out	0x12, r21	; 18
    3614:	00 00       	nop
    3616:	90 93 62 00 	sts	0x0062, r25
    361a:	20 93 62 00 	sts	0x0062, r18
    361e:	92 bb       	out	0x12, r25	; 18
    3620:	00 00       	nop
    3622:	90 93 62 00 	sts	0x0062, r25
    3626:	20 93 62 00 	sts	0x0062, r18
    362a:	80 e2       	ldi	r24, 0x20	; 32
    362c:	88 2e       	mov	r8, r24
    362e:	82 ba       	out	0x12, r8	; 18
    3630:	00 00       	nop
    3632:	90 93 62 00 	sts	0x0062, r25
    3636:	20 93 62 00 	sts	0x0062, r18
    363a:	b2 bb       	out	0x12, r27	; 18
    363c:	00 00       	nop
    363e:	90 93 62 00 	sts	0x0062, r25
    3642:	20 93 62 00 	sts	0x0062, r18
    3646:	02 e2       	ldi	r16, 0x22	; 34
    3648:	60 2e       	mov	r6, r16
    364a:	62 ba       	out	0x12, r6	; 18
    364c:	00 00       	nop
    364e:	90 93 62 00 	sts	0x0062, r25
    3652:	20 93 62 00 	sts	0x0062, r18
    3656:	f2 ba       	out	0x12, r15	; 18
    3658:	00 00       	nop
    365a:	90 93 62 00 	sts	0x0062, r25
    365e:	20 93 62 00 	sts	0x0062, r18
    3662:	85 e2       	ldi	r24, 0x25	; 37
    3664:	98 2e       	mov	r9, r24
    3666:	92 ba       	out	0x12, r9	; 18
    3668:	00 00       	nop
    366a:	90 93 62 00 	sts	0x0062, r25
    366e:	20 93 62 00 	sts	0x0062, r18
    3672:	8b e2       	ldi	r24, 0x2B	; 43
    3674:	82 bb       	out	0x12, r24	; 18
    3676:	00 00       	nop
    3678:	90 93 62 00 	sts	0x0062, r25
    367c:	20 93 62 00 	sts	0x0062, r18
    3680:	00 e3       	ldi	r16, 0x30	; 48
    3682:	80 2e       	mov	r8, r16
    3684:	82 ba       	out	0x12, r8	; 18
    3686:	00 00       	nop
    3688:	90 93 62 00 	sts	0x0062, r25
    368c:	20 93 62 00 	sts	0x0062, r18
    3690:	e2 ba       	out	0x12, r14	; 18
    3692:	00 00       	nop
    3694:	90 93 62 00 	sts	0x0062, r25
    3698:	20 93 62 00 	sts	0x0062, r18
    369c:	83 e3       	ldi	r24, 0x33	; 51
    369e:	82 bb       	out	0x12, r24	; 18
    36a0:	00 00       	nop
    36a2:	90 93 62 00 	sts	0x0062, r25
    36a6:	20 93 62 00 	sts	0x0062, r18
    36aa:	e2 bb       	out	0x12, r30	; 18
    36ac:	00 00       	nop
    36ae:	90 93 62 00 	sts	0x0062, r25
    36b2:	20 93 62 00 	sts	0x0062, r18
    36b6:	89 e3       	ldi	r24, 0x39	; 57
    36b8:	82 bb       	out	0x12, r24	; 18
    36ba:	00 00       	nop
    36bc:	90 93 62 00 	sts	0x0062, r25
    36c0:	20 93 62 00 	sts	0x0062, r18
    36c4:	f2 bb       	out	0x12, r31	; 18
    36c6:	00 00       	nop
    36c8:	90 93 62 00 	sts	0x0062, r25
    36cc:	20 93 62 00 	sts	0x0062, r18
    36d0:	72 bb       	out	0x12, r23	; 18
    36d2:	00 00       	nop
    36d4:	90 93 62 00 	sts	0x0062, r25
    36d8:	20 93 62 00 	sts	0x0062, r18
    36dc:	87 e4       	ldi	r24, 0x47	; 71
    36de:	82 bb       	out	0x12, r24	; 18
    36e0:	00 00       	nop
    36e2:	90 93 62 00 	sts	0x0062, r25
    36e6:	20 93 62 00 	sts	0x0062, r18
    36ea:	80 e5       	ldi	r24, 0x50	; 80
    36ec:	82 bb       	out	0x12, r24	; 18
    36ee:	00 00       	nop
    36f0:	90 93 62 00 	sts	0x0062, r25
    36f4:	20 93 62 00 	sts	0x0062, r18
    36f8:	82 e5       	ldi	r24, 0x52	; 82
    36fa:	82 bb       	out	0x12, r24	; 18
    36fc:	00 00       	nop
    36fe:	90 93 62 00 	sts	0x0062, r25
    3702:	20 93 62 00 	sts	0x0062, r18
    3706:	85 e5       	ldi	r24, 0x55	; 85
    3708:	82 bb       	out	0x12, r24	; 18
    370a:	00 00       	nop
    370c:	90 93 62 00 	sts	0x0062, r25
    3710:	20 93 62 00 	sts	0x0062, r18
    3714:	c2 ba       	out	0x12, r12	; 18
    3716:	00 00       	nop
    3718:	90 93 62 00 	sts	0x0062, r25
    371c:	20 93 62 00 	sts	0x0062, r18
    3720:	83 e6       	ldi	r24, 0x63	; 99
    3722:	82 bb       	out	0x12, r24	; 18
    3724:	00 00       	nop
    3726:	90 93 62 00 	sts	0x0062, r25
    372a:	20 93 62 00 	sts	0x0062, r18
    372e:	84 e6       	ldi	r24, 0x64	; 100
    3730:	82 bb       	out	0x12, r24	; 18
    3732:	00 00       	nop
    3734:	90 93 62 00 	sts	0x0062, r25
    3738:	20 93 62 00 	sts	0x0062, r18
    373c:	80 e7       	ldi	r24, 0x70	; 112
    373e:	f8 2e       	mov	r15, r24
    3740:	f2 ba       	out	0x12, r15	; 18
    3742:	00 00       	nop
    3744:	90 93 62 00 	sts	0x0062, r25
    3748:	20 93 62 00 	sts	0x0062, r18
    374c:	84 e7       	ldi	r24, 0x74	; 116
    374e:	82 bb       	out	0x12, r24	; 18
    3750:	00 00       	nop
    3752:	90 93 62 00 	sts	0x0062, r25
    3756:	20 93 62 00 	sts	0x0062, r18
    375a:	b2 ba       	out	0x12, r11	; 18
    375c:	00 00       	nop
    375e:	90 93 62 00 	sts	0x0062, r25
    3762:	20 93 62 00 	sts	0x0062, r18
    3766:	a2 bb       	out	0x12, r26	; 18
    3768:	00 00       	nop
    376a:	90 93 62 00 	sts	0x0062, r25
    376e:	20 93 62 00 	sts	0x0062, r18
    3772:	22 ba       	out	0x12, r2	; 18
    3774:	00 00       	nop
    3776:	90 93 62 00 	sts	0x0062, r25
    377a:	20 93 62 00 	sts	0x0062, r18
    377e:	a7 e0       	ldi	r26, 0x07	; 7
    3780:	a2 bb       	out	0x12, r26	; 18
    3782:	00 00       	nop
    3784:	90 93 62 00 	sts	0x0062, r25
    3788:	20 93 62 00 	sts	0x0062, r18
    378c:	52 ba       	out	0x12, r5	; 18
    378e:	00 00       	nop
    3790:	90 93 62 00 	sts	0x0062, r25
    3794:	20 93 62 00 	sts	0x0062, r18
    3798:	42 ba       	out	0x12, r4	; 18
    379a:	00 00       	nop
    379c:	90 93 62 00 	sts	0x0062, r25
    37a0:	20 93 62 00 	sts	0x0062, r18
    37a4:	8c e0       	ldi	r24, 0x0C	; 12
    37a6:	82 bb       	out	0x12, r24	; 18
    37a8:	00 00       	nop
    37aa:	90 93 62 00 	sts	0x0062, r25
    37ae:	20 93 62 00 	sts	0x0062, r18
    37b2:	ad e0       	ldi	r26, 0x0D	; 13
    37b4:	a2 bb       	out	0x12, r26	; 18
    37b6:	00 00       	nop
    37b8:	90 93 62 00 	sts	0x0062, r25
    37bc:	20 93 62 00 	sts	0x0062, r18
    37c0:	12 bb       	out	0x12, r17	; 18
    37c2:	00 00       	nop
    37c4:	90 93 62 00 	sts	0x0062, r25
    37c8:	20 93 62 00 	sts	0x0062, r18
    37cc:	8f e0       	ldi	r24, 0x0F	; 15
    37ce:	82 bb       	out	0x12, r24	; 18
    37d0:	00 00       	nop
    37d2:	90 93 62 00 	sts	0x0062, r25
    37d6:	20 93 62 00 	sts	0x0062, r18
    37da:	a2 ba       	out	0x12, r10	; 18
    37dc:	00 00       	nop
    37de:	90 93 62 00 	sts	0x0062, r25
    37e2:	20 93 62 00 	sts	0x0062, r18
    37e6:	32 ba       	out	0x12, r3	; 18
    37e8:	00 00       	nop
    37ea:	90 93 62 00 	sts	0x0062, r25
    37ee:	20 93 62 00 	sts	0x0062, r18
    37f2:	42 bb       	out	0x12, r20	; 18
    37f4:	00 00       	nop
    37f6:	90 93 62 00 	sts	0x0062, r25
    37fa:	20 93 62 00 	sts	0x0062, r18
    37fe:	d2 ba       	out	0x12, r13	; 18
    3800:	00 00       	nop
    3802:	90 93 62 00 	sts	0x0062, r25
    3806:	20 93 62 00 	sts	0x0062, r18
    380a:	22 bb       	out	0x12, r18	; 18
    380c:	00 00       	nop
    380e:	90 93 62 00 	sts	0x0062, r25
    3812:	20 93 62 00 	sts	0x0062, r18
    3816:	52 bb       	out	0x12, r21	; 18
    3818:	00 00       	nop
    381a:	90 93 62 00 	sts	0x0062, r25
    381e:	20 93 62 00 	sts	0x0062, r18
    3822:	b2 bb       	out	0x12, r27	; 18
    3824:	00 00       	nop
    3826:	90 93 62 00 	sts	0x0062, r25
    382a:	20 93 62 00 	sts	0x0062, r18
    382e:	62 ba       	out	0x12, r6	; 18
    3830:	00 00       	nop
    3832:	90 93 62 00 	sts	0x0062, r25
    3836:	20 93 62 00 	sts	0x0062, r18
    383a:	92 ba       	out	0x12, r9	; 18
    383c:	00 00       	nop
    383e:	90 93 62 00 	sts	0x0062, r25
    3842:	20 93 62 00 	sts	0x0062, r18
    3846:	8d e2       	ldi	r24, 0x2D	; 45
    3848:	82 bb       	out	0x12, r24	; 18
    384a:	00 00       	nop
    384c:	90 93 62 00 	sts	0x0062, r25
    3850:	20 93 62 00 	sts	0x0062, r18
    3854:	82 ba       	out	0x12, r8	; 18
    3856:	00 00       	nop
    3858:	90 93 62 00 	sts	0x0062, r25
    385c:	20 93 62 00 	sts	0x0062, r18
    3860:	a2 e3       	ldi	r26, 0x32	; 50
    3862:	a2 bb       	out	0x12, r26	; 18
    3864:	00 00       	nop
    3866:	90 93 62 00 	sts	0x0062, r25
    386a:	20 93 62 00 	sts	0x0062, r18
    386e:	e2 bb       	out	0x12, r30	; 18
    3870:	00 00       	nop
    3872:	90 93 62 00 	sts	0x0062, r25
    3876:	20 93 62 00 	sts	0x0062, r18
    387a:	f2 bb       	out	0x12, r31	; 18
    387c:	00 00       	nop
    387e:	90 93 62 00 	sts	0x0062, r25
    3882:	20 93 62 00 	sts	0x0062, r18
    3886:	72 bb       	out	0x12, r23	; 18
    3888:	00 00       	nop
    388a:	90 93 62 00 	sts	0x0062, r25
    388e:	20 93 62 00 	sts	0x0062, r18
    3892:	bc e4       	ldi	r27, 0x4C	; 76
    3894:	b2 bb       	out	0x12, r27	; 18
    3896:	00 00       	nop
    3898:	90 93 62 00 	sts	0x0062, r25
    389c:	20 93 62 00 	sts	0x0062, r18
    38a0:	72 ba       	out	0x12, r7	; 18
    38a2:	00 00       	nop
    38a4:	90 93 62 00 	sts	0x0062, r25
    38a8:	20 93 62 00 	sts	0x0062, r18
    38ac:	86 e5       	ldi	r24, 0x56	; 86
    38ae:	82 bb       	out	0x12, r24	; 18
    38b0:	00 00       	nop
    38b2:	90 93 62 00 	sts	0x0062, r25
    38b6:	20 93 62 00 	sts	0x0062, r18
    38ba:	82 e6       	ldi	r24, 0x62	; 98
    38bc:	82 bb       	out	0x12, r24	; 18
    38be:	00 00       	nop
    38c0:	90 93 62 00 	sts	0x0062, r25
    38c4:	20 93 62 00 	sts	0x0062, r18
    38c8:	89 e6       	ldi	r24, 0x69	; 105
    38ca:	82 bb       	out	0x12, r24	; 18
    38cc:	00 00       	nop
    38ce:	90 93 62 00 	sts	0x0062, r25
    38d2:	20 93 62 00 	sts	0x0062, r18
    38d6:	f2 ba       	out	0x12, r15	; 18
    38d8:	00 00       	nop
    38da:	90 93 62 00 	sts	0x0062, r25
    38de:	20 93 62 00 	sts	0x0062, r18
    38e2:	87 e7       	ldi	r24, 0x77	; 119
    38e4:	82 bb       	out	0x12, r24	; 18
    38e6:	00 00       	nop
    38e8:	90 93 62 00 	sts	0x0062, r25
    38ec:	20 93 62 00 	sts	0x0062, r18
    38f0:	b2 ba       	out	0x12, r11	; 18
    38f2:	00 00       	nop
    38f4:	90 93 62 00 	sts	0x0062, r25
    38f8:	60 93 62 00 	sts	0x0062, r22
    38fc:	30 93 62 00 	sts	0x0062, r19
    3900:	40 93 62 00 	sts	0x0062, r20
    3904:	8d ec       	ldi	r24, 0xCD	; 205
    3906:	82 bb       	out	0x12, r24	; 18
    3908:	00 00       	nop
    390a:	30 93 62 00 	sts	0x0062, r19
    390e:	50 93 62 00 	sts	0x0062, r21
    3912:	90 93 62 00 	sts	0x0062, r25
    3916:	20 93 62 00 	sts	0x0062, r18
    391a:	a2 bb       	out	0x12, r26	; 18
    391c:	00 00       	nop
    391e:	90 93 62 00 	sts	0x0062, r25
    3922:	60 93 62 00 	sts	0x0062, r22
    3926:	30 93 62 00 	sts	0x0062, r19
    392a:	40 93 62 00 	sts	0x0062, r20
    392e:	8d eb       	ldi	r24, 0xBD	; 189
    3930:	82 bb       	out	0x12, r24	; 18
    3932:	00 00       	nop
    3934:	30 93 62 00 	sts	0x0062, r19
    3938:	50 93 62 00 	sts	0x0062, r21
    393c:	90 93 62 00 	sts	0x0062, r25
    3940:	20 93 62 00 	sts	0x0062, r18
    3944:	52 ba       	out	0x12, r5	; 18
    3946:	00 00       	nop
    3948:	90 93 62 00 	sts	0x0062, r25
    394c:	60 93 62 00 	sts	0x0062, r22
    3950:	30 93 62 00 	sts	0x0062, r19
    3954:	40 93 62 00 	sts	0x0062, r20
    3958:	8e ec       	ldi	r24, 0xCE	; 206
    395a:	82 bb       	out	0x12, r24	; 18
    395c:	00 00       	nop
    395e:	30 93 62 00 	sts	0x0062, r19
    3962:	50 93 62 00 	sts	0x0062, r21
    3966:	90 93 62 00 	sts	0x0062, r25
    396a:	20 93 62 00 	sts	0x0062, r18
    396e:	42 ba       	out	0x12, r4	; 18
    3970:	00 00       	nop
    3972:	90 93 62 00 	sts	0x0062, r25
    3976:	60 93 62 00 	sts	0x0062, r22
    397a:	30 93 62 00 	sts	0x0062, r19
    397e:	40 93 62 00 	sts	0x0062, r20
    3982:	8f ec       	ldi	r24, 0xCF	; 207
    3984:	82 bb       	out	0x12, r24	; 18
    3986:	00 00       	nop
    3988:	30 93 62 00 	sts	0x0062, r19
    398c:	50 93 62 00 	sts	0x0062, r21
    3990:	90 93 62 00 	sts	0x0062, r25
    3994:	20 93 62 00 	sts	0x0062, r18
    3998:	e3 e0       	ldi	r30, 0x03	; 3
    399a:	e2 bb       	out	0x12, r30	; 18
    399c:	00 00       	nop
    399e:	90 93 62 00 	sts	0x0062, r25
    39a2:	60 93 62 00 	sts	0x0062, r22
    39a6:	30 93 62 00 	sts	0x0062, r19
    39aa:	40 93 62 00 	sts	0x0062, r20
    39ae:	83 ed       	ldi	r24, 0xD3	; 211
    39b0:	82 bb       	out	0x12, r24	; 18
    39b2:	00 00       	nop
    39b4:	30 93 62 00 	sts	0x0062, r19
    39b8:	50 93 62 00 	sts	0x0062, r21
    39bc:	90 93 62 00 	sts	0x0062, r25
    39c0:	20 93 62 00 	sts	0x0062, r18
    39c4:	22 ba       	out	0x12, r2	; 18
    39c6:	00 00       	nop
    39c8:	90 93 62 00 	sts	0x0062, r25
    39cc:	60 93 62 00 	sts	0x0062, r22
    39d0:	30 93 62 00 	sts	0x0062, r19
    39d4:	40 93 62 00 	sts	0x0062, r20
    39d8:	89 e2       	ldi	r24, 0x29	; 41
    39da:	82 bb       	out	0x12, r24	; 18
    39dc:	00 00       	nop
    39de:	30 93 62 00 	sts	0x0062, r19
    39e2:	50 93 62 00 	sts	0x0062, r21
    39e6:	90 93 62 00 	sts	0x0062, r25
    39ea:	60 93 62 00 	sts	0x0062, r22
    39ee:	30 93 62 00 	sts	0x0062, r19
    39f2:	40 93 62 00 	sts	0x0062, r20
    39f6:	f0 e2       	ldi	r31, 0x20	; 32
    39f8:	f2 bb       	out	0x12, r31	; 18
    39fa:	00 00       	nop
    39fc:	30 93 62 00 	sts	0x0062, r19
    3a00:	50 93 62 00 	sts	0x0062, r21
    3a04:	90 93 62 00 	sts	0x0062, r25
    3a08:	60 93 62 00 	sts	0x0062, r22
    3a0c:	30 93 62 00 	sts	0x0062, r19
    3a10:	40 93 62 00 	sts	0x0062, r20
    3a14:	d2 ba       	out	0x12, r13	; 18
    3a16:	00 00       	nop
    3a18:	30 93 62 00 	sts	0x0062, r19
    3a1c:	50 93 62 00 	sts	0x0062, r21
    3a20:	90 93 62 00 	sts	0x0062, r25
    3a24:	60 93 62 00 	sts	0x0062, r22
    3a28:	30 93 62 00 	sts	0x0062, r19
    3a2c:	40 93 62 00 	sts	0x0062, r20
    3a30:	32 ba       	out	0x12, r3	; 18
    3a32:	00 00       	nop
    3a34:	30 93 62 00 	sts	0x0062, r19
    3a38:	50 93 62 00 	sts	0x0062, r21
    3a3c:	90 93 62 00 	sts	0x0062, r25
    3a40:	60 93 62 00 	sts	0x0062, r22
    3a44:	30 93 62 00 	sts	0x0062, r19
    3a48:	40 93 62 00 	sts	0x0062, r20
    3a4c:	8a e2       	ldi	r24, 0x2A	; 42
    3a4e:	82 bb       	out	0x12, r24	; 18
    3a50:	00 00       	nop
    3a52:	30 93 62 00 	sts	0x0062, r19
    3a56:	50 93 62 00 	sts	0x0062, r21
    3a5a:	90 93 62 00 	sts	0x0062, r25
    3a5e:	20 93 62 00 	sts	0x0062, r18
    3a62:	12 ba       	out	0x12, r1	; 18
    3a64:	00 00       	nop
    3a66:	90 93 62 00 	sts	0x0062, r25
    3a6a:	20 93 62 00 	sts	0x0062, r18
    3a6e:	b2 ba       	out	0x12, r11	; 18
    3a70:	00 00       	nop
    3a72:	90 93 62 00 	sts	0x0062, r25
    3a76:	60 93 62 00 	sts	0x0062, r22
    3a7a:	30 93 62 00 	sts	0x0062, r19
    3a7e:	40 93 62 00 	sts	0x0062, r20
    3a82:	0b e2       	ldi	r16, 0x2B	; 43
    3a84:	60 2e       	mov	r6, r16
    3a86:	62 ba       	out	0x12, r6	; 18
    3a88:	00 00       	nop
    3a8a:	30 93 62 00 	sts	0x0062, r19
    3a8e:	50 93 62 00 	sts	0x0062, r21
    3a92:	90 93 62 00 	sts	0x0062, r25
    3a96:	20 93 62 00 	sts	0x0062, r18
    3a9a:	12 ba       	out	0x12, r1	; 18
    3a9c:	00 00       	nop
    3a9e:	90 93 62 00 	sts	0x0062, r25
    3aa2:	20 93 62 00 	sts	0x0062, r18
    3aa6:	b2 ba       	out	0x12, r11	; 18
    3aa8:	00 00       	nop
    3aaa:	90 93 62 00 	sts	0x0062, r25
    3aae:	60 93 62 00 	sts	0x0062, r22
    3ab2:	30 93 62 00 	sts	0x0062, r19
    3ab6:	40 93 62 00 	sts	0x0062, r20
    3aba:	8c e2       	ldi	r24, 0x2C	; 44
    3abc:	82 bb       	out	0x12, r24	; 18
    3abe:	00 00       	nop
    3ac0:	30 93 62 00 	sts	0x0062, r19
    3ac4:	50 93 62 00 	sts	0x0062, r21
    3ac8:	90 93 62 00 	sts	0x0062, r25
    3acc:	50 e0       	ldi	r21, 0x00	; 0
    3ace:	36 e1       	ldi	r19, 0x16	; 22
    3ad0:	2f ef       	ldi	r18, 0xFF	; 255
    3ad2:	12 c0       	rjmp	.+36     	; 0x3af8 <main+0xad0>
    3ad4:	30 93 62 00 	sts	0x0062, r19
    3ad8:	22 bb       	out	0x12, r18	; 18
    3ada:	00 00       	nop
    3adc:	90 93 62 00 	sts	0x0062, r25
    3ae0:	30 93 62 00 	sts	0x0062, r19
    3ae4:	22 bb       	out	0x12, r18	; 18
    3ae6:	00 00       	nop
    3ae8:	90 93 62 00 	sts	0x0062, r25
    3aec:	8f 5f       	subi	r24, 0xFF	; 255
    3aee:	80 38       	cpi	r24, 0x80	; 128
    3af0:	89 f7       	brne	.-30     	; 0x3ad4 <main+0xaac>
    3af2:	5f 5f       	subi	r21, 0xFF	; 255
    3af4:	50 38       	cpi	r21, 0x80	; 128
    3af6:	11 f0       	breq	.+4      	; 0x3afc <main+0xad4>
    3af8:	80 e0       	ldi	r24, 0x00	; 0
    3afa:	ec cf       	rjmp	.-40     	; 0x3ad4 <main+0xaac>

	//Bitmap Initialize
	BITMAP_INIT(NUMBERS_INDEX+1,ONE,0);
    3afc:	80 91 b4 02 	lds	r24, 0x02B4
    3b00:	90 91 b5 02 	lds	r25, 0x02B5
    3b04:	90 93 38 06 	sts	0x0638, r25
    3b08:	80 93 37 06 	sts	0x0637, r24
    3b0c:	28 e0       	ldi	r18, 0x08	; 8
    3b0e:	20 93 39 06 	sts	0x0639, r18
    3b12:	30 e1       	ldi	r19, 0x10	; 16
    3b14:	30 93 3a 06 	sts	0x063A, r19
    3b18:	10 92 3c 06 	sts	0x063C, r1
    3b1c:	10 92 3b 06 	sts	0x063B, r1
	BITMAP_INIT(NUMBERS_INDEX,ZERO,0);
    3b20:	80 91 b2 02 	lds	r24, 0x02B2
    3b24:	90 91 b3 02 	lds	r25, 0x02B3
    3b28:	90 93 32 06 	sts	0x0632, r25
    3b2c:	80 93 31 06 	sts	0x0631, r24
    3b30:	20 93 33 06 	sts	0x0633, r18
    3b34:	30 93 34 06 	sts	0x0634, r19
    3b38:	10 92 36 06 	sts	0x0636, r1
    3b3c:	10 92 35 06 	sts	0x0635, r1
	BITMAP_INIT(NUMBERS_INDEX+2,TWO,0);
    3b40:	80 91 b6 02 	lds	r24, 0x02B6
    3b44:	90 91 b7 02 	lds	r25, 0x02B7
    3b48:	90 93 3e 06 	sts	0x063E, r25
    3b4c:	80 93 3d 06 	sts	0x063D, r24
    3b50:	20 93 3f 06 	sts	0x063F, r18
    3b54:	30 93 40 06 	sts	0x0640, r19
    3b58:	10 92 42 06 	sts	0x0642, r1
    3b5c:	10 92 41 06 	sts	0x0641, r1
	BITMAP_INIT(NUMBERS_INDEX+3,THREE,0);
    3b60:	80 91 b8 02 	lds	r24, 0x02B8
    3b64:	90 91 b9 02 	lds	r25, 0x02B9
    3b68:	90 93 44 06 	sts	0x0644, r25
    3b6c:	80 93 43 06 	sts	0x0643, r24
    3b70:	20 93 45 06 	sts	0x0645, r18
    3b74:	30 93 46 06 	sts	0x0646, r19
    3b78:	10 92 48 06 	sts	0x0648, r1
    3b7c:	10 92 47 06 	sts	0x0647, r1
	BITMAP_INIT(NUMBERS_INDEX+4,FOUR,0);
    3b80:	80 91 ba 02 	lds	r24, 0x02BA
    3b84:	90 91 bb 02 	lds	r25, 0x02BB
    3b88:	90 93 4a 06 	sts	0x064A, r25
    3b8c:	80 93 49 06 	sts	0x0649, r24
    3b90:	20 93 4b 06 	sts	0x064B, r18
    3b94:	30 93 4c 06 	sts	0x064C, r19
    3b98:	10 92 4e 06 	sts	0x064E, r1
    3b9c:	10 92 4d 06 	sts	0x064D, r1
	BITMAP_INIT(NUMBERS_INDEX+5,FIVE,0);
    3ba0:	80 91 bc 02 	lds	r24, 0x02BC
    3ba4:	90 91 bd 02 	lds	r25, 0x02BD
    3ba8:	90 93 50 06 	sts	0x0650, r25
    3bac:	80 93 4f 06 	sts	0x064F, r24
    3bb0:	20 93 51 06 	sts	0x0651, r18
    3bb4:	30 93 52 06 	sts	0x0652, r19
    3bb8:	10 92 54 06 	sts	0x0654, r1
    3bbc:	10 92 53 06 	sts	0x0653, r1
	BITMAP_INIT(NUMBERS_INDEX+6,SIX,0);
    3bc0:	80 91 be 02 	lds	r24, 0x02BE
    3bc4:	90 91 bf 02 	lds	r25, 0x02BF
    3bc8:	90 93 56 06 	sts	0x0656, r25
    3bcc:	80 93 55 06 	sts	0x0655, r24
    3bd0:	20 93 57 06 	sts	0x0657, r18
    3bd4:	30 93 58 06 	sts	0x0658, r19
    3bd8:	10 92 5a 06 	sts	0x065A, r1
    3bdc:	10 92 59 06 	sts	0x0659, r1
	BITMAP_INIT(NUMBERS_INDEX+7,SEVEN,0);
    3be0:	80 91 c0 02 	lds	r24, 0x02C0
    3be4:	90 91 c1 02 	lds	r25, 0x02C1
    3be8:	90 93 5c 06 	sts	0x065C, r25
    3bec:	80 93 5b 06 	sts	0x065B, r24
    3bf0:	20 93 5d 06 	sts	0x065D, r18
    3bf4:	30 93 5e 06 	sts	0x065E, r19
    3bf8:	10 92 60 06 	sts	0x0660, r1
    3bfc:	10 92 5f 06 	sts	0x065F, r1
	BITMAP_INIT(NUMBERS_INDEX+8,EIGHT,0);
    3c00:	80 91 c2 02 	lds	r24, 0x02C2
    3c04:	90 91 c3 02 	lds	r25, 0x02C3
    3c08:	90 93 62 06 	sts	0x0662, r25
    3c0c:	80 93 61 06 	sts	0x0661, r24
    3c10:	20 93 63 06 	sts	0x0663, r18
    3c14:	30 93 64 06 	sts	0x0664, r19
    3c18:	10 92 66 06 	sts	0x0666, r1
    3c1c:	10 92 65 06 	sts	0x0665, r1
	BITMAP_INIT(NUMBERS_INDEX+9,NINE,0);
    3c20:	80 91 c4 02 	lds	r24, 0x02C4
    3c24:	90 91 c5 02 	lds	r25, 0x02C5
    3c28:	90 93 68 06 	sts	0x0668, r25
    3c2c:	80 93 67 06 	sts	0x0667, r24
    3c30:	20 93 69 06 	sts	0x0669, r18
    3c34:	30 93 6a 06 	sts	0x066A, r19
    3c38:	10 92 6c 06 	sts	0x066C, r1
    3c3c:	10 92 6b 06 	sts	0x066B, r1
	BITMAP_INIT(EFFECT_INDEX+1,perfect,0xf81f);
    3c40:	80 91 de 02 	lds	r24, 0x02DE
    3c44:	90 91 df 02 	lds	r25, 0x02DF
    3c48:	90 93 fc 05 	sts	0x05FC, r25
    3c4c:	80 93 fb 05 	sts	0x05FB, r24
    3c50:	40 e4       	ldi	r20, 0x40	; 64
    3c52:	40 93 fd 05 	sts	0x05FD, r20
    3c56:	20 e2       	ldi	r18, 0x20	; 32
    3c58:	20 93 fe 05 	sts	0x05FE, r18
    3c5c:	8f e1       	ldi	r24, 0x1F	; 31
    3c5e:	98 ef       	ldi	r25, 0xF8	; 248
    3c60:	90 93 00 06 	sts	0x0600, r25
    3c64:	80 93 ff 05 	sts	0x05FF, r24
	BITMAP_INIT(EFFECT_INDEX+2,GREAT,0x7E0);
    3c68:	80 91 d6 02 	lds	r24, 0x02D6
    3c6c:	90 91 d7 02 	lds	r25, 0x02D7
    3c70:	90 93 02 06 	sts	0x0602, r25
    3c74:	80 93 01 06 	sts	0x0601, r24
    3c78:	40 93 03 06 	sts	0x0603, r20
    3c7c:	20 93 04 06 	sts	0x0604, r18
    3c80:	60 ee       	ldi	r22, 0xE0	; 224
    3c82:	77 e0       	ldi	r23, 0x07	; 7
    3c84:	70 93 06 06 	sts	0x0606, r23
    3c88:	60 93 05 06 	sts	0x0605, r22
	BITMAP_INIT(EFFECT_INDEX+3,GOOD,0b1111100000);
    3c8c:	80 91 d4 02 	lds	r24, 0x02D4
    3c90:	90 91 d5 02 	lds	r25, 0x02D5
    3c94:	90 93 08 06 	sts	0x0608, r25
    3c98:	80 93 07 06 	sts	0x0607, r24
    3c9c:	40 93 09 06 	sts	0x0609, r20
    3ca0:	20 93 0a 06 	sts	0x060A, r18
    3ca4:	80 ee       	ldi	r24, 0xE0	; 224
    3ca6:	93 e0       	ldi	r25, 0x03	; 3
    3ca8:	90 93 0c 06 	sts	0x060C, r25
    3cac:	80 93 0b 06 	sts	0x060B, r24
	BITMAP_INIT(EFFECT_INDEX+4,BAD,31);
    3cb0:	80 91 ca 02 	lds	r24, 0x02CA
    3cb4:	90 91 cb 02 	lds	r25, 0x02CB
    3cb8:	90 93 0e 06 	sts	0x060E, r25
    3cbc:	80 93 0d 06 	sts	0x060D, r24
    3cc0:	40 93 0f 06 	sts	0x060F, r20
    3cc4:	20 93 10 06 	sts	0x0610, r18
    3cc8:	8f e1       	ldi	r24, 0x1F	; 31
    3cca:	90 e0       	ldi	r25, 0x00	; 0
    3ccc:	90 93 12 06 	sts	0x0612, r25
    3cd0:	80 93 11 06 	sts	0x0611, r24
	BITMAP_INIT(EFFECT_INDEX+5,MISS,0xf800);
    3cd4:	80 91 dc 02 	lds	r24, 0x02DC
    3cd8:	90 91 dd 02 	lds	r25, 0x02DD
    3cdc:	90 93 14 06 	sts	0x0614, r25
    3ce0:	80 93 13 06 	sts	0x0613, r24
    3ce4:	40 93 15 06 	sts	0x0615, r20
    3ce8:	81 e2       	ldi	r24, 0x21	; 33
    3cea:	80 93 16 06 	sts	0x0616, r24
    3cee:	e0 e0       	ldi	r30, 0x00	; 0
    3cf0:	f8 ef       	ldi	r31, 0xF8	; 248
    3cf2:	f0 93 18 06 	sts	0x0618, r31
    3cf6:	e0 93 17 06 	sts	0x0617, r30
	BITMAP_INIT(DANCE_INDEX,basic1,0x0);
    3cfa:	80 91 cc 02 	lds	r24, 0x02CC
    3cfe:	90 91 cd 02 	lds	r25, 0x02CD
    3d02:	90 93 c0 05 	sts	0x05C0, r25
    3d06:	80 93 bf 05 	sts	0x05BF, r24
    3d0a:	20 93 c1 05 	sts	0x05C1, r18
    3d0e:	40 93 c2 05 	sts	0x05C2, r20
    3d12:	10 92 c4 05 	sts	0x05C4, r1
    3d16:	10 92 c3 05 	sts	0x05C3, r1
	BITMAP_INIT(DANCE_INDEX+1,beside,0);
    3d1a:	80 91 ce 02 	lds	r24, 0x02CE
    3d1e:	90 91 cf 02 	lds	r25, 0x02CF
    3d22:	90 93 c6 05 	sts	0x05C6, r25
    3d26:	80 93 c5 05 	sts	0x05C5, r24
    3d2a:	20 93 c7 05 	sts	0x05C7, r18
    3d2e:	40 93 c8 05 	sts	0x05C8, r20
    3d32:	10 92 ca 05 	sts	0x05CA, r1
    3d36:	10 92 c9 05 	sts	0x05C9, r1
	BITMAP_INIT(DANCE_INDEX+2,dudumchit,0);
    3d3a:	80 91 d2 02 	lds	r24, 0x02D2
    3d3e:	90 91 d3 02 	lds	r25, 0x02D3
    3d42:	90 93 cc 05 	sts	0x05CC, r25
    3d46:	80 93 cb 05 	sts	0x05CB, r24
    3d4a:	20 93 cd 05 	sts	0x05CD, r18
    3d4e:	40 93 ce 05 	sts	0x05CE, r20
    3d52:	10 92 d0 05 	sts	0x05D0, r1
    3d56:	10 92 cf 05 	sts	0x05CF, r1
	BITMAP_INIT(DANCE_INDEX+3,heart3,0);
    3d5a:	80 91 d8 02 	lds	r24, 0x02D8
    3d5e:	90 91 d9 02 	lds	r25, 0x02D9
    3d62:	90 93 d2 05 	sts	0x05D2, r25
    3d66:	80 93 d1 05 	sts	0x05D1, r24
    3d6a:	20 93 d3 05 	sts	0x05D3, r18
    3d6e:	40 93 d4 05 	sts	0x05D4, r20
    3d72:	10 92 d6 05 	sts	0x05D6, r1
    3d76:	10 92 d5 05 	sts	0x05D5, r1
	BITMAP_INIT(DANCE_INDEX+4,jackson,0);
    3d7a:	80 91 da 02 	lds	r24, 0x02DA
    3d7e:	90 91 db 02 	lds	r25, 0x02DB
    3d82:	90 93 d8 05 	sts	0x05D8, r25
    3d86:	80 93 d7 05 	sts	0x05D7, r24
    3d8a:	20 93 d9 05 	sts	0x05D9, r18
    3d8e:	40 93 da 05 	sts	0x05DA, r20
    3d92:	10 92 dc 05 	sts	0x05DC, r1
    3d96:	10 92 db 05 	sts	0x05DB, r1
	BITMAP_INIT(DANCE_INDEX+5,superman,0);
    3d9a:	80 91 e0 02 	lds	r24, 0x02E0
    3d9e:	90 91 e1 02 	lds	r25, 0x02E1
    3da2:	90 93 de 05 	sts	0x05DE, r25
    3da6:	80 93 dd 05 	sts	0x05DD, r24
    3daa:	20 93 df 05 	sts	0x05DF, r18
    3dae:	40 93 e0 05 	sts	0x05E0, r20
    3db2:	10 92 e2 05 	sts	0x05E2, r1
    3db6:	10 92 e1 05 	sts	0x05E1, r1
	BITMAP_INIT(DANCE_INDEX+6,arm,0);
    3dba:	80 91 c6 02 	lds	r24, 0x02C6
    3dbe:	90 91 c7 02 	lds	r25, 0x02C7
    3dc2:	90 93 e4 05 	sts	0x05E4, r25
    3dc6:	80 93 e3 05 	sts	0x05E3, r24
    3dca:	20 93 e5 05 	sts	0x05E5, r18
    3dce:	40 93 e6 05 	sts	0x05E6, r20
    3dd2:	10 92 e8 05 	sts	0x05E8, r1
    3dd6:	10 92 e7 05 	sts	0x05E7, r1

	BITMAP_INIT(HEART_INDEX,life,0xf800);
    3dda:	80 91 e2 02 	lds	r24, 0x02E2
    3dde:	90 91 e3 02 	lds	r25, 0x02E3
    3de2:	90 93 74 06 	sts	0x0674, r25
    3de6:	80 93 73 06 	sts	0x0673, r24
    3dea:	30 93 75 06 	sts	0x0675, r19
    3dee:	30 93 76 06 	sts	0x0676, r19
    3df2:	f0 93 78 06 	sts	0x0678, r31
    3df6:	e0 93 77 06 	sts	0x0677, r30
	//BITMAP_INIT(DANCE_INDEX+7,die,0);
	BITMAP_INIT(MNOTE_INDEX,musicnote,0);
    3dfa:	80 91 e8 02 	lds	r24, 0x02E8
    3dfe:	90 91 e9 02 	lds	r25, 0x02E9
    3e02:	90 93 80 06 	sts	0x0680, r25
    3e06:	80 93 7f 06 	sts	0x067F, r24
    3e0a:	30 93 81 06 	sts	0x0681, r19
    3e0e:	30 93 82 06 	sts	0x0682, r19
    3e12:	10 92 84 06 	sts	0x0684, r1
    3e16:	10 92 83 06 	sts	0x0683, r1
	BITMAP_INIT(MNOTE_CHECKED_INDEX,musicnote,0x7E0);
    3e1a:	90 93 98 06 	sts	0x0698, r25
    3e1e:	80 93 97 06 	sts	0x0697, r24
    3e22:	30 93 99 06 	sts	0x0699, r19
    3e26:	30 93 9a 06 	sts	0x069A, r19
    3e2a:	70 93 9c 06 	sts	0x069C, r23
    3e2e:	60 93 9b 06 	sts	0x069B, r22
	BITMAP_INIT(MNOTE_NONE_INDEX,nonote,0);
    3e32:	80 91 ee 02 	lds	r24, 0x02EE
    3e36:	90 91 ef 02 	lds	r25, 0x02EF
    3e3a:	90 93 9e 06 	sts	0x069E, r25
    3e3e:	80 93 9d 06 	sts	0x069D, r24
    3e42:	30 93 9f 06 	sts	0x069F, r19
    3e46:	30 93 a0 06 	sts	0x06A0, r19
    3e4a:	10 92 a2 06 	sts	0x06A2, r1
    3e4e:	10 92 a1 06 	sts	0x06A1, r1
	BITMAP_INIT(MNOTE_NONE_CHECKED_INDEX,nonote,0x7E0);
    3e52:	90 93 a4 06 	sts	0x06A4, r25
    3e56:	80 93 a3 06 	sts	0x06A3, r24
    3e5a:	30 93 a5 06 	sts	0x06A5, r19
    3e5e:	30 93 a6 06 	sts	0x06A6, r19
    3e62:	70 93 a8 06 	sts	0x06A8, r23
    3e66:	60 93 a7 06 	sts	0x06A7, r22
	BITMAP_INIT(SCORE_INDEX,img_score,0);
    3e6a:	80 91 c8 02 	lds	r24, 0x02C8
    3e6e:	90 91 c9 02 	lds	r25, 0x02C9
    3e72:	90 93 86 06 	sts	0x0686, r25
    3e76:	80 93 85 06 	sts	0x0685, r24
    3e7a:	80 e3       	ldi	r24, 0x30	; 48
    3e7c:	80 93 87 06 	sts	0x0687, r24
    3e80:	30 93 88 06 	sts	0x0688, r19
    3e84:	10 92 8a 06 	sts	0x068A, r1
    3e88:	10 92 89 06 	sts	0x0689, r1
	BITMAP_INIT(OVER_INDEX,img_over,0);
    3e8c:	80 91 ea 02 	lds	r24, 0x02EA
    3e90:	90 91 eb 02 	lds	r25, 0x02EB
    3e94:	90 93 8c 06 	sts	0x068C, r25
    3e98:	80 93 8b 06 	sts	0x068B, r24
    3e9c:	50 93 8d 06 	sts	0x068D, r21
    3ea0:	40 93 8e 06 	sts	0x068E, r20
    3ea4:	10 92 90 06 	sts	0x0690, r1
    3ea8:	10 92 8f 06 	sts	0x068F, r1
	BITMAP_INIT(OVER_INDEX+1,img_over2,0);
    3eac:	80 91 ec 02 	lds	r24, 0x02EC
    3eb0:	90 91 ed 02 	lds	r25, 0x02ED
    3eb4:	90 93 92 06 	sts	0x0692, r25
    3eb8:	80 93 91 06 	sts	0x0691, r24
    3ebc:	50 93 93 06 	sts	0x0693, r21
    3ec0:	40 93 94 06 	sts	0x0694, r20
    3ec4:	10 92 96 06 	sts	0x0696, r1
    3ec8:	10 92 95 06 	sts	0x0695, r1
	TIMER3_START();
    3ecc:	80 91 8a 00 	lds	r24, 0x008A
    3ed0:	8b 60       	ori	r24, 0x0B	; 11
    3ed2:	80 93 8a 00 	sts	0x008A, r24
	sei();
    3ed6:	78 94       	sei


	while(1) {
	//	cli();
		LCD_UPDATE();
		OLED_UPDATE();
    3ed8:	1f e1       	ldi	r17, 0x1F	; 31
    3eda:	b1 2e       	mov	r11, r17
    3edc:	b6 e1       	ldi	r27, 0x16	; 22
    3ede:	ab 2e       	mov	r10, r27
	sei();


	while(1) {
	//	cli();
		LCD_UPDATE();
    3ee0:	80 91 11 03 	lds	r24, 0x0311
    3ee4:	87 ff       	sbrs	r24, 7
    3ee6:	9f c2       	rjmp	.+1342   	; 0x4426 <main+0x13fe>
    3ee8:	80 91 6a 02 	lds	r24, 0x026A
    3eec:	88 23       	and	r24, r24
    3eee:	21 f0       	breq	.+8      	; 0x3ef8 <main+0xed0>
    3ef0:	81 50       	subi	r24, 0x01	; 1
    3ef2:	80 93 6a 02 	sts	0x026A, r24
    3ef6:	94 c2       	rjmp	.+1320   	; 0x4420 <main+0x13f8>
    3ef8:	90 91 69 02 	lds	r25, 0x0269
    3efc:	94 ff       	sbrs	r25, 4
    3efe:	02 c0       	rjmp	.+4      	; 0x3f04 <main+0xedc>
    3f00:	0c 94 ce 2b 	jmp	0x579c	; 0x579c <main+0x2774>
    3f04:	90 ff       	sbrs	r25, 0
    3f06:	0d c0       	rjmp	.+26     	; 0x3f22 <main+0xefa>
    3f08:	77 24       	eor	r7, r7
    3f0a:	7a 94       	dec	r7
    3f0c:	74 ba       	out	0x14, r7	; 20
    3f0e:	80 91 64 00 	lds	r24, 0x0064
    3f12:	87 60       	ori	r24, 0x07	; 7
    3f14:	80 93 64 00 	sts	0x0064, r24
    3f18:	80 e4       	ldi	r24, 0x40	; 64
    3f1a:	80 93 6a 02 	sts	0x026A, r24
    3f1e:	82 e0       	ldi	r24, 0x02	; 2
    3f20:	5d c2       	rjmp	.+1210   	; 0x43dc <main+0x13b4>
    3f22:	91 ff       	sbrs	r25, 1
    3f24:	15 c0       	rjmp	.+42     	; 0x3f50 <main+0xf28>
    3f26:	80 91 65 00 	lds	r24, 0x0065
    3f2a:	8e 7f       	andi	r24, 0xFE	; 254
    3f2c:	80 93 65 00 	sts	0x0065, r24
    3f30:	88 e3       	ldi	r24, 0x38	; 56
    3f32:	85 bb       	out	0x15, r24	; 21
    3f34:	80 91 65 00 	lds	r24, 0x0065
    3f38:	84 60       	ori	r24, 0x04	; 4
    3f3a:	80 93 65 00 	sts	0x0065, r24
    3f3e:	80 91 65 00 	lds	r24, 0x0065
    3f42:	8b 7f       	andi	r24, 0xFB	; 251
    3f44:	80 93 65 00 	sts	0x0065, r24
    3f48:	10 92 6a 02 	sts	0x026A, r1
    3f4c:	84 e0       	ldi	r24, 0x04	; 4
    3f4e:	46 c2       	rjmp	.+1164   	; 0x43dc <main+0x13b4>
    3f50:	92 ff       	sbrs	r25, 2
    3f52:	15 c0       	rjmp	.+42     	; 0x3f7e <main+0xf56>
    3f54:	80 91 65 00 	lds	r24, 0x0065
    3f58:	8e 7f       	andi	r24, 0xFE	; 254
    3f5a:	80 93 65 00 	sts	0x0065, r24
    3f5e:	8c e0       	ldi	r24, 0x0C	; 12
    3f60:	85 bb       	out	0x15, r24	; 21
    3f62:	80 91 65 00 	lds	r24, 0x0065
    3f66:	84 60       	ori	r24, 0x04	; 4
    3f68:	80 93 65 00 	sts	0x0065, r24
    3f6c:	80 91 65 00 	lds	r24, 0x0065
    3f70:	8b 7f       	andi	r24, 0xFB	; 251
    3f72:	80 93 65 00 	sts	0x0065, r24
    3f76:	10 92 6a 02 	sts	0x026A, r1
    3f7a:	88 e0       	ldi	r24, 0x08	; 8
    3f7c:	2f c2       	rjmp	.+1118   	; 0x43dc <main+0x13b4>
    3f7e:	80 91 65 00 	lds	r24, 0x0065
    3f82:	8e 7f       	andi	r24, 0xFE	; 254
    3f84:	80 93 65 00 	sts	0x0065, r24
    3f88:	88 24       	eor	r8, r8
    3f8a:	83 94       	inc	r8
    3f8c:	85 ba       	out	0x15, r8	; 21
    3f8e:	80 91 65 00 	lds	r24, 0x0065
    3f92:	84 60       	ori	r24, 0x04	; 4
    3f94:	80 93 65 00 	sts	0x0065, r24
    3f98:	80 91 65 00 	lds	r24, 0x0065
    3f9c:	8b 7f       	andi	r24, 0xFB	; 251
    3f9e:	80 93 65 00 	sts	0x0065, r24
    3fa2:	80 e2       	ldi	r24, 0x20	; 32
    3fa4:	80 93 6a 02 	sts	0x026A, r24
    3fa8:	a0 e1       	ldi	r26, 0x10	; 16
    3faa:	9a 2e       	mov	r9, r26
    3fac:	90 92 69 02 	sts	0x0269, r9
    3fb0:	37 c2       	rjmp	.+1134   	; 0x4420 <main+0x13f8>
    3fb2:	e2 2f       	mov	r30, r18
    3fb4:	f0 e0       	ldi	r31, 0x00	; 0
    3fb6:	df 01       	movw	r26, r30
    3fb8:	a5 57       	subi	r26, 0x75	; 117
    3fba:	bd 4f       	sbci	r27, 0xFD	; 253
    3fbc:	e5 59       	subi	r30, 0x95	; 149
    3fbe:	fd 4f       	sbci	r31, 0xFD	; 253
    3fc0:	90 81       	ld	r25, Z
    3fc2:	8c 91       	ld	r24, X
    3fc4:	98 17       	cp	r25, r24
    3fc6:	09 f0       	breq	.+2      	; 0x3fca <main+0xfa2>
    3fc8:	f0 c1       	rjmp	.+992    	; 0x43aa <main+0x1382>
    3fca:	2f 5f       	subi	r18, 0xFF	; 255
    3fcc:	2f 71       	andi	r18, 0x1F	; 31
    3fce:	20 93 12 03 	sts	0x0312, r18
    3fd2:	e2 2f       	mov	r30, r18
    3fd4:	f0 e0       	ldi	r31, 0x00	; 0
    3fd6:	df 01       	movw	r26, r30
    3fd8:	a5 57       	subi	r26, 0x75	; 117
    3fda:	bd 4f       	sbci	r27, 0xFD	; 253
    3fdc:	e5 59       	subi	r30, 0x95	; 149
    3fde:	fd 4f       	sbci	r31, 0xFD	; 253
    3fe0:	90 81       	ld	r25, Z
    3fe2:	8c 91       	ld	r24, X
    3fe4:	98 17       	cp	r25, r24
    3fe6:	09 f0       	breq	.+2      	; 0x3fea <main+0xfc2>
    3fe8:	e0 c1       	rjmp	.+960    	; 0x43aa <main+0x1382>
    3fea:	2f 5f       	subi	r18, 0xFF	; 255
    3fec:	2f 71       	andi	r18, 0x1F	; 31
    3fee:	20 93 12 03 	sts	0x0312, r18
    3ff2:	e2 2f       	mov	r30, r18
    3ff4:	f0 e0       	ldi	r31, 0x00	; 0
    3ff6:	df 01       	movw	r26, r30
    3ff8:	a5 57       	subi	r26, 0x75	; 117
    3ffa:	bd 4f       	sbci	r27, 0xFD	; 253
    3ffc:	e5 59       	subi	r30, 0x95	; 149
    3ffe:	fd 4f       	sbci	r31, 0xFD	; 253
    4000:	90 81       	ld	r25, Z
    4002:	8c 91       	ld	r24, X
    4004:	98 17       	cp	r25, r24
    4006:	09 f0       	breq	.+2      	; 0x400a <main+0xfe2>
    4008:	d0 c1       	rjmp	.+928    	; 0x43aa <main+0x1382>
    400a:	2f 5f       	subi	r18, 0xFF	; 255
    400c:	2f 71       	andi	r18, 0x1F	; 31
    400e:	20 93 12 03 	sts	0x0312, r18
    4012:	e2 2f       	mov	r30, r18
    4014:	f0 e0       	ldi	r31, 0x00	; 0
    4016:	df 01       	movw	r26, r30
    4018:	a5 57       	subi	r26, 0x75	; 117
    401a:	bd 4f       	sbci	r27, 0xFD	; 253
    401c:	e5 59       	subi	r30, 0x95	; 149
    401e:	fd 4f       	sbci	r31, 0xFD	; 253
    4020:	90 81       	ld	r25, Z
    4022:	8c 91       	ld	r24, X
    4024:	98 17       	cp	r25, r24
    4026:	09 f0       	breq	.+2      	; 0x402a <main+0x1002>
    4028:	c0 c1       	rjmp	.+896    	; 0x43aa <main+0x1382>
    402a:	2f 5f       	subi	r18, 0xFF	; 255
    402c:	2f 71       	andi	r18, 0x1F	; 31
    402e:	20 93 12 03 	sts	0x0312, r18
    4032:	e2 2f       	mov	r30, r18
    4034:	f0 e0       	ldi	r31, 0x00	; 0
    4036:	df 01       	movw	r26, r30
    4038:	a5 57       	subi	r26, 0x75	; 117
    403a:	bd 4f       	sbci	r27, 0xFD	; 253
    403c:	e5 59       	subi	r30, 0x95	; 149
    403e:	fd 4f       	sbci	r31, 0xFD	; 253
    4040:	90 81       	ld	r25, Z
    4042:	8c 91       	ld	r24, X
    4044:	98 17       	cp	r25, r24
    4046:	09 f0       	breq	.+2      	; 0x404a <main+0x1022>
    4048:	b0 c1       	rjmp	.+864    	; 0x43aa <main+0x1382>
    404a:	2f 5f       	subi	r18, 0xFF	; 255
    404c:	2f 71       	andi	r18, 0x1F	; 31
    404e:	20 93 12 03 	sts	0x0312, r18
    4052:	e2 2f       	mov	r30, r18
    4054:	f0 e0       	ldi	r31, 0x00	; 0
    4056:	df 01       	movw	r26, r30
    4058:	a5 57       	subi	r26, 0x75	; 117
    405a:	bd 4f       	sbci	r27, 0xFD	; 253
    405c:	e5 59       	subi	r30, 0x95	; 149
    405e:	fd 4f       	sbci	r31, 0xFD	; 253
    4060:	90 81       	ld	r25, Z
    4062:	8c 91       	ld	r24, X
    4064:	98 17       	cp	r25, r24
    4066:	09 f0       	breq	.+2      	; 0x406a <main+0x1042>
    4068:	a0 c1       	rjmp	.+832    	; 0x43aa <main+0x1382>
    406a:	2f 5f       	subi	r18, 0xFF	; 255
    406c:	2f 71       	andi	r18, 0x1F	; 31
    406e:	20 93 12 03 	sts	0x0312, r18
    4072:	e2 2f       	mov	r30, r18
    4074:	f0 e0       	ldi	r31, 0x00	; 0
    4076:	df 01       	movw	r26, r30
    4078:	a5 57       	subi	r26, 0x75	; 117
    407a:	bd 4f       	sbci	r27, 0xFD	; 253
    407c:	e5 59       	subi	r30, 0x95	; 149
    407e:	fd 4f       	sbci	r31, 0xFD	; 253
    4080:	90 81       	ld	r25, Z
    4082:	8c 91       	ld	r24, X
    4084:	98 17       	cp	r25, r24
    4086:	09 f0       	breq	.+2      	; 0x408a <main+0x1062>
    4088:	90 c1       	rjmp	.+800    	; 0x43aa <main+0x1382>
    408a:	2f 5f       	subi	r18, 0xFF	; 255
    408c:	2f 71       	andi	r18, 0x1F	; 31
    408e:	20 93 12 03 	sts	0x0312, r18
    4092:	e2 2f       	mov	r30, r18
    4094:	f0 e0       	ldi	r31, 0x00	; 0
    4096:	df 01       	movw	r26, r30
    4098:	a5 57       	subi	r26, 0x75	; 117
    409a:	bd 4f       	sbci	r27, 0xFD	; 253
    409c:	e5 59       	subi	r30, 0x95	; 149
    409e:	fd 4f       	sbci	r31, 0xFD	; 253
    40a0:	90 81       	ld	r25, Z
    40a2:	8c 91       	ld	r24, X
    40a4:	98 17       	cp	r25, r24
    40a6:	09 f0       	breq	.+2      	; 0x40aa <main+0x1082>
    40a8:	80 c1       	rjmp	.+768    	; 0x43aa <main+0x1382>
    40aa:	2f 5f       	subi	r18, 0xFF	; 255
    40ac:	2f 71       	andi	r18, 0x1F	; 31
    40ae:	20 93 12 03 	sts	0x0312, r18
    40b2:	e2 2f       	mov	r30, r18
    40b4:	f0 e0       	ldi	r31, 0x00	; 0
    40b6:	df 01       	movw	r26, r30
    40b8:	a5 57       	subi	r26, 0x75	; 117
    40ba:	bd 4f       	sbci	r27, 0xFD	; 253
    40bc:	e5 59       	subi	r30, 0x95	; 149
    40be:	fd 4f       	sbci	r31, 0xFD	; 253
    40c0:	90 81       	ld	r25, Z
    40c2:	8c 91       	ld	r24, X
    40c4:	98 17       	cp	r25, r24
    40c6:	09 f0       	breq	.+2      	; 0x40ca <main+0x10a2>
    40c8:	70 c1       	rjmp	.+736    	; 0x43aa <main+0x1382>
    40ca:	2f 5f       	subi	r18, 0xFF	; 255
    40cc:	2f 71       	andi	r18, 0x1F	; 31
    40ce:	20 93 12 03 	sts	0x0312, r18
    40d2:	e2 2f       	mov	r30, r18
    40d4:	f0 e0       	ldi	r31, 0x00	; 0
    40d6:	df 01       	movw	r26, r30
    40d8:	a5 57       	subi	r26, 0x75	; 117
    40da:	bd 4f       	sbci	r27, 0xFD	; 253
    40dc:	e5 59       	subi	r30, 0x95	; 149
    40de:	fd 4f       	sbci	r31, 0xFD	; 253
    40e0:	90 81       	ld	r25, Z
    40e2:	8c 91       	ld	r24, X
    40e4:	98 17       	cp	r25, r24
    40e6:	09 f0       	breq	.+2      	; 0x40ea <main+0x10c2>
    40e8:	60 c1       	rjmp	.+704    	; 0x43aa <main+0x1382>
    40ea:	2f 5f       	subi	r18, 0xFF	; 255
    40ec:	2f 71       	andi	r18, 0x1F	; 31
    40ee:	20 93 12 03 	sts	0x0312, r18
    40f2:	e2 2f       	mov	r30, r18
    40f4:	f0 e0       	ldi	r31, 0x00	; 0
    40f6:	df 01       	movw	r26, r30
    40f8:	a5 57       	subi	r26, 0x75	; 117
    40fa:	bd 4f       	sbci	r27, 0xFD	; 253
    40fc:	e5 59       	subi	r30, 0x95	; 149
    40fe:	fd 4f       	sbci	r31, 0xFD	; 253
    4100:	90 81       	ld	r25, Z
    4102:	8c 91       	ld	r24, X
    4104:	98 17       	cp	r25, r24
    4106:	09 f0       	breq	.+2      	; 0x410a <main+0x10e2>
    4108:	50 c1       	rjmp	.+672    	; 0x43aa <main+0x1382>
    410a:	2f 5f       	subi	r18, 0xFF	; 255
    410c:	2f 71       	andi	r18, 0x1F	; 31
    410e:	20 93 12 03 	sts	0x0312, r18
    4112:	e2 2f       	mov	r30, r18
    4114:	f0 e0       	ldi	r31, 0x00	; 0
    4116:	df 01       	movw	r26, r30
    4118:	a5 57       	subi	r26, 0x75	; 117
    411a:	bd 4f       	sbci	r27, 0xFD	; 253
    411c:	e5 59       	subi	r30, 0x95	; 149
    411e:	fd 4f       	sbci	r31, 0xFD	; 253
    4120:	90 81       	ld	r25, Z
    4122:	8c 91       	ld	r24, X
    4124:	98 17       	cp	r25, r24
    4126:	09 f0       	breq	.+2      	; 0x412a <main+0x1102>
    4128:	40 c1       	rjmp	.+640    	; 0x43aa <main+0x1382>
    412a:	2f 5f       	subi	r18, 0xFF	; 255
    412c:	2f 71       	andi	r18, 0x1F	; 31
    412e:	20 93 12 03 	sts	0x0312, r18
    4132:	e2 2f       	mov	r30, r18
    4134:	f0 e0       	ldi	r31, 0x00	; 0
    4136:	df 01       	movw	r26, r30
    4138:	a5 57       	subi	r26, 0x75	; 117
    413a:	bd 4f       	sbci	r27, 0xFD	; 253
    413c:	e5 59       	subi	r30, 0x95	; 149
    413e:	fd 4f       	sbci	r31, 0xFD	; 253
    4140:	90 81       	ld	r25, Z
    4142:	8c 91       	ld	r24, X
    4144:	98 17       	cp	r25, r24
    4146:	09 f0       	breq	.+2      	; 0x414a <main+0x1122>
    4148:	30 c1       	rjmp	.+608    	; 0x43aa <main+0x1382>
    414a:	2f 5f       	subi	r18, 0xFF	; 255
    414c:	2f 71       	andi	r18, 0x1F	; 31
    414e:	20 93 12 03 	sts	0x0312, r18
    4152:	e2 2f       	mov	r30, r18
    4154:	f0 e0       	ldi	r31, 0x00	; 0
    4156:	df 01       	movw	r26, r30
    4158:	a5 57       	subi	r26, 0x75	; 117
    415a:	bd 4f       	sbci	r27, 0xFD	; 253
    415c:	e5 59       	subi	r30, 0x95	; 149
    415e:	fd 4f       	sbci	r31, 0xFD	; 253
    4160:	90 81       	ld	r25, Z
    4162:	8c 91       	ld	r24, X
    4164:	98 17       	cp	r25, r24
    4166:	09 f0       	breq	.+2      	; 0x416a <main+0x1142>
    4168:	20 c1       	rjmp	.+576    	; 0x43aa <main+0x1382>
    416a:	2f 5f       	subi	r18, 0xFF	; 255
    416c:	2f 71       	andi	r18, 0x1F	; 31
    416e:	20 93 12 03 	sts	0x0312, r18
    4172:	e2 2f       	mov	r30, r18
    4174:	f0 e0       	ldi	r31, 0x00	; 0
    4176:	df 01       	movw	r26, r30
    4178:	a5 57       	subi	r26, 0x75	; 117
    417a:	bd 4f       	sbci	r27, 0xFD	; 253
    417c:	e5 59       	subi	r30, 0x95	; 149
    417e:	fd 4f       	sbci	r31, 0xFD	; 253
    4180:	90 81       	ld	r25, Z
    4182:	8c 91       	ld	r24, X
    4184:	98 17       	cp	r25, r24
    4186:	09 f0       	breq	.+2      	; 0x418a <main+0x1162>
    4188:	10 c1       	rjmp	.+544    	; 0x43aa <main+0x1382>
    418a:	2f 5f       	subi	r18, 0xFF	; 255
    418c:	2f 71       	andi	r18, 0x1F	; 31
    418e:	20 93 12 03 	sts	0x0312, r18
    4192:	e2 2f       	mov	r30, r18
    4194:	f0 e0       	ldi	r31, 0x00	; 0
    4196:	df 01       	movw	r26, r30
    4198:	a5 57       	subi	r26, 0x75	; 117
    419a:	bd 4f       	sbci	r27, 0xFD	; 253
    419c:	e5 59       	subi	r30, 0x95	; 149
    419e:	fd 4f       	sbci	r31, 0xFD	; 253
    41a0:	90 81       	ld	r25, Z
    41a2:	8c 91       	ld	r24, X
    41a4:	98 17       	cp	r25, r24
    41a6:	09 f0       	breq	.+2      	; 0x41aa <main+0x1182>
    41a8:	00 c1       	rjmp	.+512    	; 0x43aa <main+0x1382>
    41aa:	2f 5f       	subi	r18, 0xFF	; 255
    41ac:	2f 71       	andi	r18, 0x1F	; 31
    41ae:	20 93 12 03 	sts	0x0312, r18
    41b2:	e2 2f       	mov	r30, r18
    41b4:	f0 e0       	ldi	r31, 0x00	; 0
    41b6:	df 01       	movw	r26, r30
    41b8:	a5 57       	subi	r26, 0x75	; 117
    41ba:	bd 4f       	sbci	r27, 0xFD	; 253
    41bc:	e5 59       	subi	r30, 0x95	; 149
    41be:	fd 4f       	sbci	r31, 0xFD	; 253
    41c0:	90 81       	ld	r25, Z
    41c2:	8c 91       	ld	r24, X
    41c4:	98 17       	cp	r25, r24
    41c6:	09 f0       	breq	.+2      	; 0x41ca <main+0x11a2>
    41c8:	f0 c0       	rjmp	.+480    	; 0x43aa <main+0x1382>
    41ca:	2f 5f       	subi	r18, 0xFF	; 255
    41cc:	2f 71       	andi	r18, 0x1F	; 31
    41ce:	20 93 12 03 	sts	0x0312, r18
    41d2:	e2 2f       	mov	r30, r18
    41d4:	f0 e0       	ldi	r31, 0x00	; 0
    41d6:	df 01       	movw	r26, r30
    41d8:	a5 57       	subi	r26, 0x75	; 117
    41da:	bd 4f       	sbci	r27, 0xFD	; 253
    41dc:	e5 59       	subi	r30, 0x95	; 149
    41de:	fd 4f       	sbci	r31, 0xFD	; 253
    41e0:	90 81       	ld	r25, Z
    41e2:	8c 91       	ld	r24, X
    41e4:	98 17       	cp	r25, r24
    41e6:	09 f0       	breq	.+2      	; 0x41ea <main+0x11c2>
    41e8:	e0 c0       	rjmp	.+448    	; 0x43aa <main+0x1382>
    41ea:	2f 5f       	subi	r18, 0xFF	; 255
    41ec:	2f 71       	andi	r18, 0x1F	; 31
    41ee:	20 93 12 03 	sts	0x0312, r18
    41f2:	e2 2f       	mov	r30, r18
    41f4:	f0 e0       	ldi	r31, 0x00	; 0
    41f6:	df 01       	movw	r26, r30
    41f8:	a5 57       	subi	r26, 0x75	; 117
    41fa:	bd 4f       	sbci	r27, 0xFD	; 253
    41fc:	e5 59       	subi	r30, 0x95	; 149
    41fe:	fd 4f       	sbci	r31, 0xFD	; 253
    4200:	90 81       	ld	r25, Z
    4202:	8c 91       	ld	r24, X
    4204:	98 17       	cp	r25, r24
    4206:	09 f0       	breq	.+2      	; 0x420a <main+0x11e2>
    4208:	d0 c0       	rjmp	.+416    	; 0x43aa <main+0x1382>
    420a:	2f 5f       	subi	r18, 0xFF	; 255
    420c:	2f 71       	andi	r18, 0x1F	; 31
    420e:	20 93 12 03 	sts	0x0312, r18
    4212:	e2 2f       	mov	r30, r18
    4214:	f0 e0       	ldi	r31, 0x00	; 0
    4216:	df 01       	movw	r26, r30
    4218:	a5 57       	subi	r26, 0x75	; 117
    421a:	bd 4f       	sbci	r27, 0xFD	; 253
    421c:	e5 59       	subi	r30, 0x95	; 149
    421e:	fd 4f       	sbci	r31, 0xFD	; 253
    4220:	90 81       	ld	r25, Z
    4222:	8c 91       	ld	r24, X
    4224:	98 17       	cp	r25, r24
    4226:	09 f0       	breq	.+2      	; 0x422a <main+0x1202>
    4228:	c0 c0       	rjmp	.+384    	; 0x43aa <main+0x1382>
    422a:	2f 5f       	subi	r18, 0xFF	; 255
    422c:	2f 71       	andi	r18, 0x1F	; 31
    422e:	20 93 12 03 	sts	0x0312, r18
    4232:	e2 2f       	mov	r30, r18
    4234:	f0 e0       	ldi	r31, 0x00	; 0
    4236:	df 01       	movw	r26, r30
    4238:	a5 57       	subi	r26, 0x75	; 117
    423a:	bd 4f       	sbci	r27, 0xFD	; 253
    423c:	e5 59       	subi	r30, 0x95	; 149
    423e:	fd 4f       	sbci	r31, 0xFD	; 253
    4240:	90 81       	ld	r25, Z
    4242:	8c 91       	ld	r24, X
    4244:	98 17       	cp	r25, r24
    4246:	09 f0       	breq	.+2      	; 0x424a <main+0x1222>
    4248:	b0 c0       	rjmp	.+352    	; 0x43aa <main+0x1382>
    424a:	2f 5f       	subi	r18, 0xFF	; 255
    424c:	2f 71       	andi	r18, 0x1F	; 31
    424e:	20 93 12 03 	sts	0x0312, r18
    4252:	e2 2f       	mov	r30, r18
    4254:	f0 e0       	ldi	r31, 0x00	; 0
    4256:	df 01       	movw	r26, r30
    4258:	a5 57       	subi	r26, 0x75	; 117
    425a:	bd 4f       	sbci	r27, 0xFD	; 253
    425c:	e5 59       	subi	r30, 0x95	; 149
    425e:	fd 4f       	sbci	r31, 0xFD	; 253
    4260:	90 81       	ld	r25, Z
    4262:	8c 91       	ld	r24, X
    4264:	98 17       	cp	r25, r24
    4266:	09 f0       	breq	.+2      	; 0x426a <main+0x1242>
    4268:	a0 c0       	rjmp	.+320    	; 0x43aa <main+0x1382>
    426a:	2f 5f       	subi	r18, 0xFF	; 255
    426c:	2f 71       	andi	r18, 0x1F	; 31
    426e:	20 93 12 03 	sts	0x0312, r18
    4272:	e2 2f       	mov	r30, r18
    4274:	f0 e0       	ldi	r31, 0x00	; 0
    4276:	df 01       	movw	r26, r30
    4278:	a5 57       	subi	r26, 0x75	; 117
    427a:	bd 4f       	sbci	r27, 0xFD	; 253
    427c:	e5 59       	subi	r30, 0x95	; 149
    427e:	fd 4f       	sbci	r31, 0xFD	; 253
    4280:	90 81       	ld	r25, Z
    4282:	8c 91       	ld	r24, X
    4284:	98 17       	cp	r25, r24
    4286:	09 f0       	breq	.+2      	; 0x428a <main+0x1262>
    4288:	90 c0       	rjmp	.+288    	; 0x43aa <main+0x1382>
    428a:	2f 5f       	subi	r18, 0xFF	; 255
    428c:	2f 71       	andi	r18, 0x1F	; 31
    428e:	20 93 12 03 	sts	0x0312, r18
    4292:	e2 2f       	mov	r30, r18
    4294:	f0 e0       	ldi	r31, 0x00	; 0
    4296:	df 01       	movw	r26, r30
    4298:	a5 57       	subi	r26, 0x75	; 117
    429a:	bd 4f       	sbci	r27, 0xFD	; 253
    429c:	e5 59       	subi	r30, 0x95	; 149
    429e:	fd 4f       	sbci	r31, 0xFD	; 253
    42a0:	90 81       	ld	r25, Z
    42a2:	8c 91       	ld	r24, X
    42a4:	98 17       	cp	r25, r24
    42a6:	09 f0       	breq	.+2      	; 0x42aa <main+0x1282>
    42a8:	80 c0       	rjmp	.+256    	; 0x43aa <main+0x1382>
    42aa:	2f 5f       	subi	r18, 0xFF	; 255
    42ac:	2f 71       	andi	r18, 0x1F	; 31
    42ae:	20 93 12 03 	sts	0x0312, r18
    42b2:	e2 2f       	mov	r30, r18
    42b4:	f0 e0       	ldi	r31, 0x00	; 0
    42b6:	df 01       	movw	r26, r30
    42b8:	a5 57       	subi	r26, 0x75	; 117
    42ba:	bd 4f       	sbci	r27, 0xFD	; 253
    42bc:	e5 59       	subi	r30, 0x95	; 149
    42be:	fd 4f       	sbci	r31, 0xFD	; 253
    42c0:	90 81       	ld	r25, Z
    42c2:	8c 91       	ld	r24, X
    42c4:	98 17       	cp	r25, r24
    42c6:	09 f0       	breq	.+2      	; 0x42ca <main+0x12a2>
    42c8:	70 c0       	rjmp	.+224    	; 0x43aa <main+0x1382>
    42ca:	2f 5f       	subi	r18, 0xFF	; 255
    42cc:	2f 71       	andi	r18, 0x1F	; 31
    42ce:	20 93 12 03 	sts	0x0312, r18
    42d2:	e2 2f       	mov	r30, r18
    42d4:	f0 e0       	ldi	r31, 0x00	; 0
    42d6:	df 01       	movw	r26, r30
    42d8:	a5 57       	subi	r26, 0x75	; 117
    42da:	bd 4f       	sbci	r27, 0xFD	; 253
    42dc:	e5 59       	subi	r30, 0x95	; 149
    42de:	fd 4f       	sbci	r31, 0xFD	; 253
    42e0:	90 81       	ld	r25, Z
    42e2:	8c 91       	ld	r24, X
    42e4:	98 17       	cp	r25, r24
    42e6:	09 f0       	breq	.+2      	; 0x42ea <main+0x12c2>
    42e8:	60 c0       	rjmp	.+192    	; 0x43aa <main+0x1382>
    42ea:	2f 5f       	subi	r18, 0xFF	; 255
    42ec:	2f 71       	andi	r18, 0x1F	; 31
    42ee:	20 93 12 03 	sts	0x0312, r18
    42f2:	e2 2f       	mov	r30, r18
    42f4:	f0 e0       	ldi	r31, 0x00	; 0
    42f6:	df 01       	movw	r26, r30
    42f8:	a5 57       	subi	r26, 0x75	; 117
    42fa:	bd 4f       	sbci	r27, 0xFD	; 253
    42fc:	e5 59       	subi	r30, 0x95	; 149
    42fe:	fd 4f       	sbci	r31, 0xFD	; 253
    4300:	90 81       	ld	r25, Z
    4302:	8c 91       	ld	r24, X
    4304:	98 17       	cp	r25, r24
    4306:	09 f0       	breq	.+2      	; 0x430a <main+0x12e2>
    4308:	50 c0       	rjmp	.+160    	; 0x43aa <main+0x1382>
    430a:	2f 5f       	subi	r18, 0xFF	; 255
    430c:	2f 71       	andi	r18, 0x1F	; 31
    430e:	20 93 12 03 	sts	0x0312, r18
    4312:	e2 2f       	mov	r30, r18
    4314:	f0 e0       	ldi	r31, 0x00	; 0
    4316:	df 01       	movw	r26, r30
    4318:	a5 57       	subi	r26, 0x75	; 117
    431a:	bd 4f       	sbci	r27, 0xFD	; 253
    431c:	e5 59       	subi	r30, 0x95	; 149
    431e:	fd 4f       	sbci	r31, 0xFD	; 253
    4320:	90 81       	ld	r25, Z
    4322:	8c 91       	ld	r24, X
    4324:	98 17       	cp	r25, r24
    4326:	09 f0       	breq	.+2      	; 0x432a <main+0x1302>
    4328:	40 c0       	rjmp	.+128    	; 0x43aa <main+0x1382>
    432a:	2f 5f       	subi	r18, 0xFF	; 255
    432c:	2f 71       	andi	r18, 0x1F	; 31
    432e:	20 93 12 03 	sts	0x0312, r18
    4332:	e2 2f       	mov	r30, r18
    4334:	f0 e0       	ldi	r31, 0x00	; 0
    4336:	df 01       	movw	r26, r30
    4338:	a5 57       	subi	r26, 0x75	; 117
    433a:	bd 4f       	sbci	r27, 0xFD	; 253
    433c:	e5 59       	subi	r30, 0x95	; 149
    433e:	fd 4f       	sbci	r31, 0xFD	; 253
    4340:	90 81       	ld	r25, Z
    4342:	8c 91       	ld	r24, X
    4344:	98 17       	cp	r25, r24
    4346:	89 f5       	brne	.+98     	; 0x43aa <main+0x1382>
    4348:	2f 5f       	subi	r18, 0xFF	; 255
    434a:	2f 71       	andi	r18, 0x1F	; 31
    434c:	20 93 12 03 	sts	0x0312, r18
    4350:	e2 2f       	mov	r30, r18
    4352:	f0 e0       	ldi	r31, 0x00	; 0
    4354:	df 01       	movw	r26, r30
    4356:	a5 57       	subi	r26, 0x75	; 117
    4358:	bd 4f       	sbci	r27, 0xFD	; 253
    435a:	e5 59       	subi	r30, 0x95	; 149
    435c:	fd 4f       	sbci	r31, 0xFD	; 253
    435e:	90 81       	ld	r25, Z
    4360:	8c 91       	ld	r24, X
    4362:	98 17       	cp	r25, r24
    4364:	11 f5       	brne	.+68     	; 0x43aa <main+0x1382>
    4366:	2f 5f       	subi	r18, 0xFF	; 255
    4368:	2f 71       	andi	r18, 0x1F	; 31
    436a:	20 93 12 03 	sts	0x0312, r18
    436e:	e2 2f       	mov	r30, r18
    4370:	f0 e0       	ldi	r31, 0x00	; 0
    4372:	df 01       	movw	r26, r30
    4374:	a5 57       	subi	r26, 0x75	; 117
    4376:	bd 4f       	sbci	r27, 0xFD	; 253
    4378:	e5 59       	subi	r30, 0x95	; 149
    437a:	fd 4f       	sbci	r31, 0xFD	; 253
    437c:	90 81       	ld	r25, Z
    437e:	8c 91       	ld	r24, X
    4380:	98 17       	cp	r25, r24
    4382:	99 f4       	brne	.+38     	; 0x43aa <main+0x1382>
    4384:	2f 5f       	subi	r18, 0xFF	; 255
    4386:	2f 71       	andi	r18, 0x1F	; 31
    4388:	20 93 12 03 	sts	0x0312, r18
    438c:	e2 2f       	mov	r30, r18
    438e:	f0 e0       	ldi	r31, 0x00	; 0
    4390:	df 01       	movw	r26, r30
    4392:	a5 57       	subi	r26, 0x75	; 117
    4394:	bd 4f       	sbci	r27, 0xFD	; 253
    4396:	e5 59       	subi	r30, 0x95	; 149
    4398:	fd 4f       	sbci	r31, 0xFD	; 253
    439a:	90 81       	ld	r25, Z
    439c:	8c 91       	ld	r24, X
    439e:	98 17       	cp	r25, r24
    43a0:	21 f4       	brne	.+8      	; 0x43aa <main+0x1382>
    43a2:	2f 5f       	subi	r18, 0xFF	; 255
    43a4:	2f 71       	andi	r18, 0x1F	; 31
    43a6:	20 93 12 03 	sts	0x0312, r18
    43aa:	80 91 65 00 	lds	r24, 0x0065
    43ae:	8e 7f       	andi	r24, 0xFE	; 254
    43b0:	80 93 65 00 	sts	0x0065, r24
    43b4:	80 91 12 03 	lds	r24, 0x0312
    43b8:	80 31       	cpi	r24, 0x10	; 16
    43ba:	08 f0       	brcs	.+2      	; 0x43be <main+0x1396>
    43bc:	80 5d       	subi	r24, 0xD0	; 208
    43be:	80 68       	ori	r24, 0x80	; 128
    43c0:	85 bb       	out	0x15, r24	; 21
    43c2:	80 91 65 00 	lds	r24, 0x0065
    43c6:	84 60       	ori	r24, 0x04	; 4
    43c8:	80 93 65 00 	sts	0x0065, r24
    43cc:	80 91 65 00 	lds	r24, 0x0065
    43d0:	8b 7f       	andi	r24, 0xFB	; 251
    43d2:	80 93 65 00 	sts	0x0065, r24
    43d6:	10 92 6a 02 	sts	0x026A, r1
    43da:	80 e3       	ldi	r24, 0x30	; 48
    43dc:	80 93 69 02 	sts	0x0269, r24
    43e0:	1f c0       	rjmp	.+62     	; 0x4420 <main+0x13f8>
    43e2:	80 91 65 00 	lds	r24, 0x0065
    43e6:	81 60       	ori	r24, 0x01	; 1
    43e8:	80 93 65 00 	sts	0x0065, r24
    43ec:	e2 2f       	mov	r30, r18
    43ee:	f0 e0       	ldi	r31, 0x00	; 0
    43f0:	df 01       	movw	r26, r30
    43f2:	a5 57       	subi	r26, 0x75	; 117
    43f4:	bd 4f       	sbci	r27, 0xFD	; 253
    43f6:	8c 91       	ld	r24, X
    43f8:	85 bb       	out	0x15, r24	; 21
    43fa:	80 91 65 00 	lds	r24, 0x0065
    43fe:	84 60       	ori	r24, 0x04	; 4
    4400:	80 93 65 00 	sts	0x0065, r24
    4404:	80 91 65 00 	lds	r24, 0x0065
    4408:	8b 7f       	andi	r24, 0xFB	; 251
    440a:	80 93 65 00 	sts	0x0065, r24
    440e:	10 92 6a 02 	sts	0x026A, r1
    4412:	e5 59       	subi	r30, 0x95	; 149
    4414:	fd 4f       	sbci	r31, 0xFD	; 253
    4416:	8c 91       	ld	r24, X
    4418:	80 83       	st	Z, r24
    441a:	20 e1       	ldi	r18, 0x10	; 16
    441c:	20 93 69 02 	sts	0x0269, r18
    4420:	10 92 11 03 	sts	0x0311, r1
    4424:	03 c0       	rjmp	.+6      	; 0x442c <main+0x1404>
    4426:	8f 5f       	subi	r24, 0xFF	; 255
    4428:	80 93 11 03 	sts	0x0311, r24
		OLED_UPDATE();
    442c:	80 91 b1 02 	lds	r24, 0x02B1
    4430:	80 38       	cpi	r24, 0x80	; 128
    4432:	09 f4       	brne	.+2      	; 0x4436 <main+0x140e>
    4434:	58 c4       	rjmp	.+2224   	; 0x4ce6 <main+0x1cbe>
    4436:	8f 77       	andi	r24, 0x7F	; 127
    4438:	80 93 b1 02 	sts	0x02B1, r24
    443c:	80 ff       	sbrs	r24, 0
    443e:	5b c0       	rjmp	.+182    	; 0x44f6 <main+0x14ce>
    4440:	a1 e8       	ldi	r26, 0x81	; 129
    4442:	b3 e0       	ldi	r27, 0x03	; 3
    4444:	00 e0       	ldi	r16, 0x00	; 0
    4446:	10 e0       	ldi	r17, 0x00	; 0
    4448:	6d 91       	ld	r22, X+
    444a:	7c 91       	ld	r23, X
    444c:	11 97       	sbiw	r26, 0x01	; 1
    444e:	61 15       	cp	r22, r1
    4450:	71 05       	cpc	r23, r1
    4452:	f1 f1       	breq	.+124    	; 0x44d0 <main+0x14a8>
    4454:	40 2f       	mov	r20, r16
    4456:	4f 5f       	subi	r20, 0xFF	; 255
    4458:	44 30       	cpi	r20, 0x04	; 4
    445a:	69 f0       	breq	.+26     	; 0x4476 <main+0x144e>
    445c:	24 2f       	mov	r18, r20
    445e:	30 e0       	ldi	r19, 0x00	; 0
    4460:	22 0f       	add	r18, r18
    4462:	33 1f       	adc	r19, r19
    4464:	f9 01       	movw	r30, r18
    4466:	ef 57       	subi	r30, 0x7F	; 127
    4468:	fc 4f       	sbci	r31, 0xFC	; 252
    446a:	80 81       	ld	r24, Z
    446c:	91 81       	ldd	r25, Z+1	; 0x01
    446e:	89 2b       	or	r24, r25
    4470:	91 f3       	breq	.-28     	; 0x4456 <main+0x142e>
    4472:	0c 94 d6 2b 	jmp	0x57ac	; 0x57ac <main+0x2784>
    4476:	40 e0       	ldi	r20, 0x00	; 0
    4478:	01 c0       	rjmp	.+2      	; 0x447c <main+0x1454>
    447a:	4f 5f       	subi	r20, 0xFF	; 255
    447c:	24 2f       	mov	r18, r20
    447e:	30 e0       	ldi	r19, 0x00	; 0
    4480:	22 0f       	add	r18, r18
    4482:	33 1f       	adc	r19, r19
    4484:	f9 01       	movw	r30, r18
    4486:	ef 57       	subi	r30, 0x7F	; 127
    4488:	fc 4f       	sbci	r31, 0xFC	; 252
    448a:	80 81       	ld	r24, Z
    448c:	91 81       	ldd	r25, Z+1	; 0x01
    448e:	89 2b       	or	r24, r25
    4490:	a1 f3       	breq	.-24     	; 0x447a <main+0x1452>
    4492:	f9 01       	movw	r30, r18
    4494:	e7 58       	subi	r30, 0x87	; 135
    4496:	fc 4f       	sbci	r31, 0xFC	; 252
    4498:	80 81       	ld	r24, Z
    449a:	91 81       	ldd	r25, Z+1	; 0x01
    449c:	db 01       	movw	r26, r22
    449e:	1d 96       	adiw	r26, 0x0d	; 13
    44a0:	9c 93       	st	X, r25
    44a2:	8e 93       	st	-X, r24
    44a4:	1c 97       	sbiw	r26, 0x0c	; 12
    44a6:	20 81       	ld	r18, Z
    44a8:	31 81       	ldd	r19, Z+1	; 0x01
    44aa:	00 0f       	add	r16, r16
    44ac:	11 1f       	adc	r17, r17
    44ae:	0f 57       	subi	r16, 0x7F	; 127
    44b0:	1c 4f       	sbci	r17, 0xFC	; 252
    44b2:	d8 01       	movw	r26, r16
    44b4:	8d 91       	ld	r24, X+
    44b6:	9c 91       	ld	r25, X
    44b8:	d9 01       	movw	r26, r18
    44ba:	1b 96       	adiw	r26, 0x0b	; 11
    44bc:	9c 93       	st	X, r25
    44be:	8e 93       	st	-X, r24
    44c0:	1a 97       	sbiw	r26, 0x0a	; 10
    44c2:	80 81       	ld	r24, Z
    44c4:	91 81       	ldd	r25, Z+1	; 0x01
    44c6:	90 93 76 03 	sts	0x0376, r25
    44ca:	80 93 75 03 	sts	0x0375, r24
    44ce:	07 c0       	rjmp	.+14     	; 0x44de <main+0x14b6>
    44d0:	0f 5f       	subi	r16, 0xFF	; 255
    44d2:	1f 4f       	sbci	r17, 0xFF	; 255
    44d4:	12 96       	adiw	r26, 0x02	; 2
    44d6:	04 30       	cpi	r16, 0x04	; 4
    44d8:	11 05       	cpc	r17, r1
    44da:	09 f0       	breq	.+2      	; 0x44de <main+0x14b6>
    44dc:	b5 cf       	rjmp	.-150    	; 0x4448 <main+0x1420>
    44de:	80 91 75 03 	lds	r24, 0x0375
    44e2:	90 91 76 03 	lds	r25, 0x0376
    44e6:	90 93 78 03 	sts	0x0378, r25
    44ea:	80 93 77 03 	sts	0x0377, r24
    44ee:	80 91 b1 02 	lds	r24, 0x02B1
    44f2:	8e 7f       	andi	r24, 0xFE	; 254
    44f4:	f6 c3       	rjmp	.+2028   	; 0x4ce2 <main+0x1cba>
    44f6:	82 ff       	sbrs	r24, 2
    44f8:	86 c0       	rjmp	.+268    	; 0x4606 <main+0x15de>
    44fa:	4b e1       	ldi	r20, 0x1B	; 27
    44fc:	40 93 62 00 	sts	0x0062, r20
    4500:	9a e1       	ldi	r25, 0x1A	; 26
    4502:	90 93 62 00 	sts	0x0062, r25
    4506:	32 e1       	ldi	r19, 0x12	; 18
    4508:	30 93 62 00 	sts	0x0062, r19
    450c:	8a e2       	ldi	r24, 0x2A	; 42
    450e:	82 bb       	out	0x12, r24	; 18
    4510:	00 00       	nop
    4512:	90 93 62 00 	sts	0x0062, r25
    4516:	2e e1       	ldi	r18, 0x1E	; 30
    4518:	20 93 62 00 	sts	0x0062, r18
    451c:	b0 92 62 00 	sts	0x0062, r11
    4520:	a0 92 62 00 	sts	0x0062, r10
    4524:	12 ba       	out	0x12, r1	; 18
    4526:	00 00       	nop
    4528:	b0 92 62 00 	sts	0x0062, r11
    452c:	a0 92 62 00 	sts	0x0062, r10
    4530:	5f e7       	ldi	r21, 0x7F	; 127
    4532:	52 bb       	out	0x12, r21	; 18
    4534:	00 00       	nop
    4536:	b0 92 62 00 	sts	0x0062, r11
    453a:	40 93 62 00 	sts	0x0062, r20
    453e:	90 93 62 00 	sts	0x0062, r25
    4542:	30 93 62 00 	sts	0x0062, r19
    4546:	8b e2       	ldi	r24, 0x2B	; 43
    4548:	82 bb       	out	0x12, r24	; 18
    454a:	00 00       	nop
    454c:	90 93 62 00 	sts	0x0062, r25
    4550:	20 93 62 00 	sts	0x0062, r18
    4554:	b0 92 62 00 	sts	0x0062, r11
    4558:	a0 92 62 00 	sts	0x0062, r10
    455c:	12 ba       	out	0x12, r1	; 18
    455e:	00 00       	nop
    4560:	b0 92 62 00 	sts	0x0062, r11
    4564:	a0 92 62 00 	sts	0x0062, r10
    4568:	52 bb       	out	0x12, r21	; 18
    456a:	00 00       	nop
    456c:	b0 92 62 00 	sts	0x0062, r11
    4570:	40 93 62 00 	sts	0x0062, r20
    4574:	90 93 62 00 	sts	0x0062, r25
    4578:	30 93 62 00 	sts	0x0062, r19
    457c:	8c e2       	ldi	r24, 0x2C	; 44
    457e:	82 bb       	out	0x12, r24	; 18
    4580:	00 00       	nop
    4582:	90 93 62 00 	sts	0x0062, r25
    4586:	20 93 62 00 	sts	0x0062, r18
    458a:	b0 92 62 00 	sts	0x0062, r11
    458e:	90 e0       	ldi	r25, 0x00	; 0
    4590:	15 c0       	rjmp	.+42     	; 0x45bc <main+0x1594>
    4592:	b6 e1       	ldi	r27, 0x16	; 22
    4594:	b0 93 62 00 	sts	0x0062, r27
    4598:	ef ef       	ldi	r30, 0xFF	; 255
    459a:	e2 bb       	out	0x12, r30	; 18
    459c:	00 00       	nop
    459e:	ff e1       	ldi	r31, 0x1F	; 31
    45a0:	f0 93 62 00 	sts	0x0062, r31
    45a4:	b0 93 62 00 	sts	0x0062, r27
    45a8:	e2 bb       	out	0x12, r30	; 18
    45aa:	00 00       	nop
    45ac:	f0 93 62 00 	sts	0x0062, r31
    45b0:	8f 5f       	subi	r24, 0xFF	; 255
    45b2:	80 38       	cpi	r24, 0x80	; 128
    45b4:	71 f7       	brne	.-36     	; 0x4592 <main+0x156a>
    45b6:	9f 5f       	subi	r25, 0xFF	; 255
    45b8:	90 38       	cpi	r25, 0x80	; 128
    45ba:	11 f0       	breq	.+4      	; 0x45c0 <main+0x1598>
    45bc:	80 e0       	ldi	r24, 0x00	; 0
    45be:	e9 cf       	rjmp	.-46     	; 0x4592 <main+0x156a>
    45c0:	e0 91 75 03 	lds	r30, 0x0375
    45c4:	f0 91 76 03 	lds	r31, 0x0376
    45c8:	30 97       	sbiw	r30, 0x00	; 0
    45ca:	c9 f0       	breq	.+50     	; 0x45fe <main+0x15d6>
    45cc:	f0 93 78 03 	sts	0x0378, r31
    45d0:	e0 93 77 03 	sts	0x0377, r30
    45d4:	95 81       	ldd	r25, Z+5	; 0x05
    45d6:	89 2f       	mov	r24, r25
    45d8:	80 73       	andi	r24, 0x30	; 48
    45da:	80 32       	cpi	r24, 0x20	; 32
    45dc:	11 f4       	brne	.+4      	; 0x45e2 <main+0x15ba>
    45de:	91 60       	ori	r25, 0x01	; 1
    45e0:	95 83       	std	Z+5, r25	; 0x05
    45e2:	04 84       	ldd	r0, Z+12	; 0x0c
    45e4:	f5 85       	ldd	r31, Z+13	; 0x0d
    45e6:	e0 2d       	mov	r30, r0
    45e8:	80 91 75 03 	lds	r24, 0x0375
    45ec:	90 91 76 03 	lds	r25, 0x0376
    45f0:	e8 17       	cp	r30, r24
    45f2:	f9 07       	cpc	r31, r25
    45f4:	79 f7       	brne	.-34     	; 0x45d4 <main+0x15ac>
    45f6:	f0 93 78 03 	sts	0x0378, r31
    45fa:	e0 93 77 03 	sts	0x0377, r30
    45fe:	80 91 b1 02 	lds	r24, 0x02B1
    4602:	89 7f       	andi	r24, 0xF9	; 249
    4604:	6e c3       	rjmp	.+1756   	; 0x4ce2 <main+0x1cba>
    4606:	20 91 75 03 	lds	r18, 0x0375
    460a:	30 91 76 03 	lds	r19, 0x0376
    460e:	81 ff       	sbrs	r24, 1
    4610:	92 c0       	rjmp	.+292    	; 0x4736 <main+0x170e>
    4612:	23 2b       	or	r18, r19
    4614:	09 f4       	brne	.+2      	; 0x4618 <main+0x15f0>
    4616:	8b c0       	rjmp	.+278    	; 0x472e <main+0x1706>
    4618:	e0 91 75 03 	lds	r30, 0x0375
    461c:	f0 91 76 03 	lds	r31, 0x0376
    4620:	51 e0       	ldi	r21, 0x01	; 1
    4622:	45 81       	ldd	r20, Z+5	; 0x05
    4624:	24 2f       	mov	r18, r20
    4626:	30 e0       	ldi	r19, 0x00	; 0
    4628:	c9 01       	movw	r24, r18
    462a:	85 70       	andi	r24, 0x05	; 5
    462c:	90 70       	andi	r25, 0x00	; 0
    462e:	89 2b       	or	r24, r25
    4630:	09 f4       	brne	.+2      	; 0x4634 <main+0x160c>
    4632:	5a c0       	rjmp	.+180    	; 0x46e8 <main+0x16c0>
    4634:	84 2f       	mov	r24, r20
    4636:	80 79       	andi	r24, 0x90	; 144
    4638:	09 f0       	breq	.+2      	; 0x463c <main+0x1614>
    463a:	56 c0       	rjmp	.+172    	; 0x46e8 <main+0x16c0>
    463c:	40 68       	ori	r20, 0x80	; 128
    463e:	45 83       	std	Z+5, r20	; 0x05
    4640:	df 01       	movw	r26, r30
    4642:	15 96       	adiw	r26, 0x05	; 5
    4644:	2c 91       	ld	r18, X
    4646:	15 97       	sbiw	r26, 0x05	; 5
    4648:	82 2f       	mov	r24, r18
    464a:	84 7b       	andi	r24, 0xB4	; 180
    464c:	80 32       	cpi	r24, 0x20	; 32
    464e:	09 f0       	breq	.+2      	; 0x4652 <main+0x162a>
    4650:	43 c0       	rjmp	.+134    	; 0x46d8 <main+0x16b0>
    4652:	85 81       	ldd	r24, Z+5	; 0x05
    4654:	80 ff       	sbrs	r24, 0
    4656:	1d c0       	rjmp	.+58     	; 0x4692 <main+0x166a>
    4658:	91 81       	ldd	r25, Z+1	; 0x01
    465a:	13 96       	adiw	r26, 0x03	; 3
    465c:	8c 91       	ld	r24, X
    465e:	13 97       	sbiw	r26, 0x03	; 3
    4660:	89 17       	cp	r24, r25
    4662:	b8 f0       	brcs	.+46     	; 0x4692 <main+0x166a>
    4664:	92 81       	ldd	r25, Z+2	; 0x02
    4666:	14 96       	adiw	r26, 0x04	; 4
    4668:	8c 91       	ld	r24, X
    466a:	14 97       	sbiw	r26, 0x04	; 4
    466c:	89 17       	cp	r24, r25
    466e:	88 f0       	brcs	.+34     	; 0x4692 <main+0x166a>
    4670:	93 81       	ldd	r25, Z+3	; 0x03
    4672:	11 96       	adiw	r26, 0x01	; 1
    4674:	8c 91       	ld	r24, X
    4676:	11 97       	sbiw	r26, 0x01	; 1
    4678:	98 17       	cp	r25, r24
    467a:	58 f0       	brcs	.+22     	; 0x4692 <main+0x166a>
    467c:	94 81       	ldd	r25, Z+4	; 0x04
    467e:	12 96       	adiw	r26, 0x02	; 2
    4680:	8c 91       	ld	r24, X
    4682:	12 97       	sbiw	r26, 0x02	; 2
    4684:	98 17       	cp	r25, r24
    4686:	28 f0       	brcs	.+10     	; 0x4692 <main+0x166a>
    4688:	21 60       	ori	r18, 0x01	; 1
    468a:	15 96       	adiw	r26, 0x05	; 5
    468c:	2c 93       	st	X, r18
    468e:	15 97       	sbiw	r26, 0x05	; 5
    4690:	50 e0       	ldi	r21, 0x00	; 0
    4692:	85 81       	ldd	r24, Z+5	; 0x05
    4694:	82 ff       	sbrs	r24, 2
    4696:	20 c0       	rjmp	.+64     	; 0x46d8 <main+0x16b0>
    4698:	96 81       	ldd	r25, Z+6	; 0x06
    469a:	13 96       	adiw	r26, 0x03	; 3
    469c:	8c 91       	ld	r24, X
    469e:	13 97       	sbiw	r26, 0x03	; 3
    46a0:	89 17       	cp	r24, r25
    46a2:	d0 f0       	brcs	.+52     	; 0x46d8 <main+0x16b0>
    46a4:	97 81       	ldd	r25, Z+7	; 0x07
    46a6:	14 96       	adiw	r26, 0x04	; 4
    46a8:	8c 91       	ld	r24, X
    46aa:	14 97       	sbiw	r26, 0x04	; 4
    46ac:	89 17       	cp	r24, r25
    46ae:	a0 f0       	brcs	.+40     	; 0x46d8 <main+0x16b0>
    46b0:	90 85       	ldd	r25, Z+8	; 0x08
    46b2:	11 96       	adiw	r26, 0x01	; 1
    46b4:	8c 91       	ld	r24, X
    46b6:	11 97       	sbiw	r26, 0x01	; 1
    46b8:	98 17       	cp	r25, r24
    46ba:	70 f0       	brcs	.+28     	; 0x46d8 <main+0x16b0>
    46bc:	91 85       	ldd	r25, Z+9	; 0x09
    46be:	12 96       	adiw	r26, 0x02	; 2
    46c0:	8c 91       	ld	r24, X
    46c2:	12 97       	sbiw	r26, 0x02	; 2
    46c4:	98 17       	cp	r25, r24
    46c6:	40 f0       	brcs	.+16     	; 0x46d8 <main+0x16b0>
    46c8:	15 96       	adiw	r26, 0x05	; 5
    46ca:	8c 91       	ld	r24, X
    46cc:	15 97       	sbiw	r26, 0x05	; 5
    46ce:	81 60       	ori	r24, 0x01	; 1
    46d0:	15 96       	adiw	r26, 0x05	; 5
    46d2:	8c 93       	st	X, r24
    46d4:	15 97       	sbiw	r26, 0x05	; 5
    46d6:	50 e0       	ldi	r21, 0x00	; 0
    46d8:	1c 96       	adiw	r26, 0x0c	; 12
    46da:	0d 90       	ld	r0, X+
    46dc:	bc 91       	ld	r27, X
    46de:	a0 2d       	mov	r26, r0
    46e0:	ae 17       	cp	r26, r30
    46e2:	bf 07       	cpc	r27, r31
    46e4:	09 f0       	breq	.+2      	; 0x46e8 <main+0x16c0>
    46e6:	ad cf       	rjmp	.-166    	; 0x4642 <main+0x161a>
    46e8:	04 84       	ldd	r0, Z+12	; 0x0c
    46ea:	f5 85       	ldd	r31, Z+13	; 0x0d
    46ec:	e0 2d       	mov	r30, r0
    46ee:	80 91 75 03 	lds	r24, 0x0375
    46f2:	90 91 76 03 	lds	r25, 0x0376
    46f6:	e8 17       	cp	r30, r24
    46f8:	f9 07       	cpc	r31, r25
    46fa:	09 f0       	breq	.+2      	; 0x46fe <main+0x16d6>
    46fc:	92 cf       	rjmp	.-220    	; 0x4622 <main+0x15fa>
    46fe:	55 23       	and	r21, r21
    4700:	09 f4       	brne	.+2      	; 0x4704 <main+0x16dc>
    4702:	8a cf       	rjmp	.-236    	; 0x4618 <main+0x15f0>
    4704:	f0 93 78 03 	sts	0x0378, r31
    4708:	e0 93 77 03 	sts	0x0377, r30
    470c:	85 81       	ldd	r24, Z+5	; 0x05
    470e:	8f 77       	andi	r24, 0x7F	; 127
    4710:	85 83       	std	Z+5, r24	; 0x05
    4712:	04 84       	ldd	r0, Z+12	; 0x0c
    4714:	f5 85       	ldd	r31, Z+13	; 0x0d
    4716:	e0 2d       	mov	r30, r0
    4718:	80 91 75 03 	lds	r24, 0x0375
    471c:	90 91 76 03 	lds	r25, 0x0376
    4720:	e8 17       	cp	r30, r24
    4722:	f9 07       	cpc	r31, r25
    4724:	99 f7       	brne	.-26     	; 0x470c <main+0x16e4>
    4726:	f0 93 78 03 	sts	0x0378, r31
    472a:	e0 93 77 03 	sts	0x0377, r30
    472e:	80 91 b1 02 	lds	r24, 0x02B1
    4732:	8d 7f       	andi	r24, 0xFD	; 253
    4734:	d6 c2       	rjmp	.+1452   	; 0x4ce2 <main+0x1cba>
    4736:	23 2b       	or	r18, r19
    4738:	09 f4       	brne	.+2      	; 0x473c <main+0x1714>
    473a:	d2 c2       	rjmp	.+1444   	; 0x4ce0 <main+0x1cb8>
    473c:	80 90 77 03 	lds	r8, 0x0377
    4740:	90 90 78 03 	lds	r9, 0x0378
    4744:	24 01       	movw	r4, r8
    4746:	d2 01       	movw	r26, r4
    4748:	15 96       	adiw	r26, 0x05	; 5
    474a:	fc 91       	ld	r31, X
    474c:	15 97       	sbiw	r26, 0x05	; 5
    474e:	f4 fd       	sbrc	r31, 4
    4750:	b3 c2       	rjmp	.+1382   	; 0x4cb8 <main+0x1c90>
    4752:	f2 ff       	sbrs	r31, 2
    4754:	7f c0       	rjmp	.+254    	; 0x4854 <main+0x182c>
    4756:	f5 ff       	sbrs	r31, 5
    4758:	79 c0       	rjmp	.+242    	; 0x484c <main+0x1824>
    475a:	19 96       	adiw	r26, 0x09	; 9
    475c:	6c 91       	ld	r22, X
    475e:	19 97       	sbiw	r26, 0x09	; 9
    4760:	17 96       	adiw	r26, 0x07	; 7
    4762:	5c 91       	ld	r21, X
    4764:	17 97       	sbiw	r26, 0x07	; 7
    4766:	18 96       	adiw	r26, 0x08	; 8
    4768:	ec 91       	ld	r30, X
    476a:	18 97       	sbiw	r26, 0x08	; 8
    476c:	16 96       	adiw	r26, 0x06	; 6
    476e:	7c 91       	ld	r23, X
    4770:	2e 2f       	mov	r18, r30
    4772:	30 e0       	ldi	r19, 0x00	; 0
    4774:	2f 5f       	subi	r18, 0xFF	; 255
    4776:	3f 4f       	sbci	r19, 0xFF	; 255
    4778:	27 1b       	sub	r18, r23
    477a:	31 09       	sbc	r19, r1
    477c:	86 2f       	mov	r24, r22
    477e:	90 e0       	ldi	r25, 0x00	; 0
    4780:	01 96       	adiw	r24, 0x01	; 1
    4782:	85 1b       	sub	r24, r21
    4784:	91 09       	sbc	r25, r1
    4786:	28 9f       	mul	r18, r24
    4788:	d0 01       	movw	r26, r0
    478a:	29 9f       	mul	r18, r25
    478c:	b0 0d       	add	r27, r0
    478e:	38 9f       	mul	r19, r24
    4790:	b0 0d       	add	r27, r0
    4792:	11 24       	eor	r1, r1
    4794:	4b e1       	ldi	r20, 0x1B	; 27
    4796:	40 93 62 00 	sts	0x0062, r20
    479a:	9a e1       	ldi	r25, 0x1A	; 26
    479c:	90 93 62 00 	sts	0x0062, r25
    47a0:	32 e1       	ldi	r19, 0x12	; 18
    47a2:	30 93 62 00 	sts	0x0062, r19
    47a6:	8b e2       	ldi	r24, 0x2B	; 43
    47a8:	82 bb       	out	0x12, r24	; 18
    47aa:	00 00       	nop
    47ac:	90 93 62 00 	sts	0x0062, r25
    47b0:	2e e1       	ldi	r18, 0x1E	; 30
    47b2:	20 93 62 00 	sts	0x0062, r18
    47b6:	b0 92 62 00 	sts	0x0062, r11
    47ba:	a0 92 62 00 	sts	0x0062, r10
    47be:	52 bb       	out	0x12, r21	; 18
    47c0:	00 00       	nop
    47c2:	b0 92 62 00 	sts	0x0062, r11
    47c6:	a0 92 62 00 	sts	0x0062, r10
    47ca:	62 bb       	out	0x12, r22	; 18
    47cc:	00 00       	nop
    47ce:	b0 92 62 00 	sts	0x0062, r11
    47d2:	40 93 62 00 	sts	0x0062, r20
    47d6:	90 93 62 00 	sts	0x0062, r25
    47da:	30 93 62 00 	sts	0x0062, r19
    47de:	8a e2       	ldi	r24, 0x2A	; 42
    47e0:	82 bb       	out	0x12, r24	; 18
    47e2:	00 00       	nop
    47e4:	90 93 62 00 	sts	0x0062, r25
    47e8:	20 93 62 00 	sts	0x0062, r18
    47ec:	b0 92 62 00 	sts	0x0062, r11
    47f0:	a0 92 62 00 	sts	0x0062, r10
    47f4:	72 bb       	out	0x12, r23	; 18
    47f6:	00 00       	nop
    47f8:	b0 92 62 00 	sts	0x0062, r11
    47fc:	a0 92 62 00 	sts	0x0062, r10
    4800:	e2 bb       	out	0x12, r30	; 18
    4802:	00 00       	nop
    4804:	b0 92 62 00 	sts	0x0062, r11
    4808:	40 93 62 00 	sts	0x0062, r20
    480c:	90 93 62 00 	sts	0x0062, r25
    4810:	30 93 62 00 	sts	0x0062, r19
    4814:	8c e2       	ldi	r24, 0x2C	; 44
    4816:	82 bb       	out	0x12, r24	; 18
    4818:	00 00       	nop
    481a:	90 93 62 00 	sts	0x0062, r25
    481e:	20 93 62 00 	sts	0x0062, r18
    4822:	b0 92 62 00 	sts	0x0062, r11
    4826:	a0 92 62 00 	sts	0x0062, r10
    482a:	ef ef       	ldi	r30, 0xFF	; 255
    482c:	e2 bb       	out	0x12, r30	; 18
    482e:	00 00       	nop
    4830:	b0 92 62 00 	sts	0x0062, r11
    4834:	a0 92 62 00 	sts	0x0062, r10
    4838:	e2 bb       	out	0x12, r30	; 18
    483a:	00 00       	nop
    483c:	b0 92 62 00 	sts	0x0062, r11
    4840:	11 97       	sbiw	r26, 0x01	; 1
    4842:	89 f7       	brne	.-30     	; 0x4826 <main+0x17fe>
    4844:	ff 7d       	andi	r31, 0xDF	; 223
    4846:	d2 01       	movw	r26, r4
    4848:	15 96       	adiw	r26, 0x05	; 5
    484a:	fc 93       	st	X, r31
    484c:	f2 01       	movw	r30, r4
    484e:	85 81       	ldd	r24, Z+5	; 0x05
    4850:	8b 7f       	andi	r24, 0xFB	; 251
    4852:	85 83       	std	Z+5, r24	; 0x05
    4854:	d2 01       	movw	r26, r4
    4856:	15 96       	adiw	r26, 0x05	; 5
    4858:	8c 91       	ld	r24, X
    485a:	15 97       	sbiw	r26, 0x05	; 5
    485c:	80 ff       	sbrs	r24, 0
    485e:	8f c1       	rjmp	.+798    	; 0x4b7e <main+0x1b56>
    4860:	2c 91       	ld	r18, X
    4862:	86 ff       	sbrs	r24, 6
    4864:	a7 c0       	rjmp	.+334    	; 0x49b4 <main+0x198c>
    4866:	82 2f       	mov	r24, r18
    4868:	90 e0       	ldi	r25, 0x00	; 0
    486a:	fc 01       	movw	r30, r24
    486c:	ee 0f       	add	r30, r30
    486e:	ff 1f       	adc	r31, r31
    4870:	e8 0f       	add	r30, r24
    4872:	f9 1f       	adc	r31, r25
    4874:	ee 0f       	add	r30, r30
    4876:	ff 1f       	adc	r31, r31
    4878:	df 01       	movw	r26, r30
    487a:	a7 54       	subi	r26, 0x47	; 71
    487c:	ba 4f       	sbci	r27, 0xFA	; 250
    487e:	13 96       	adiw	r26, 0x03	; 3
    4880:	fc 90       	ld	r15, X
    4882:	13 97       	sbiw	r26, 0x03	; 3
    4884:	e5 54       	subi	r30, 0x45	; 69
    4886:	fa 4f       	sbci	r31, 0xFA	; 250
    4888:	e0 80       	ld	r14, Z
    488a:	14 96       	adiw	r26, 0x04	; 4
    488c:	dc 90       	ld	r13, X
    488e:	14 97       	sbiw	r26, 0x04	; 4
    4890:	4b e1       	ldi	r20, 0x1B	; 27
    4892:	40 93 62 00 	sts	0x0062, r20
    4896:	9a e1       	ldi	r25, 0x1A	; 26
    4898:	90 93 62 00 	sts	0x0062, r25
    489c:	32 e1       	ldi	r19, 0x12	; 18
    489e:	30 93 62 00 	sts	0x0062, r19
    48a2:	8a e2       	ldi	r24, 0x2A	; 42
    48a4:	82 bb       	out	0x12, r24	; 18
    48a6:	00 00       	nop
    48a8:	90 93 62 00 	sts	0x0062, r25
    48ac:	2e e1       	ldi	r18, 0x1E	; 30
    48ae:	20 93 62 00 	sts	0x0062, r18
    48b2:	b0 92 62 00 	sts	0x0062, r11
    48b6:	a0 92 62 00 	sts	0x0062, r10
    48ba:	f2 01       	movw	r30, r4
    48bc:	81 81       	ldd	r24, Z+1	; 0x01
    48be:	82 bb       	out	0x12, r24	; 18
    48c0:	00 00       	nop
    48c2:	b0 92 62 00 	sts	0x0062, r11
    48c6:	a0 92 62 00 	sts	0x0062, r10
    48ca:	83 81       	ldd	r24, Z+3	; 0x03
    48cc:	82 bb       	out	0x12, r24	; 18
    48ce:	00 00       	nop
    48d0:	b0 92 62 00 	sts	0x0062, r11
    48d4:	40 93 62 00 	sts	0x0062, r20
    48d8:	90 93 62 00 	sts	0x0062, r25
    48dc:	30 93 62 00 	sts	0x0062, r19
    48e0:	8b e2       	ldi	r24, 0x2B	; 43
    48e2:	82 bb       	out	0x12, r24	; 18
    48e4:	00 00       	nop
    48e6:	90 93 62 00 	sts	0x0062, r25
    48ea:	20 93 62 00 	sts	0x0062, r18
    48ee:	b0 92 62 00 	sts	0x0062, r11
    48f2:	a0 92 62 00 	sts	0x0062, r10
    48f6:	82 81       	ldd	r24, Z+2	; 0x02
    48f8:	82 bb       	out	0x12, r24	; 18
    48fa:	00 00       	nop
    48fc:	b0 92 62 00 	sts	0x0062, r11
    4900:	a0 92 62 00 	sts	0x0062, r10
    4904:	84 81       	ldd	r24, Z+4	; 0x04
    4906:	82 bb       	out	0x12, r24	; 18
    4908:	00 00       	nop
    490a:	b0 92 62 00 	sts	0x0062, r11
    490e:	40 93 62 00 	sts	0x0062, r20
    4912:	90 93 62 00 	sts	0x0062, r25
    4916:	30 93 62 00 	sts	0x0062, r19
    491a:	8c e2       	ldi	r24, 0x2C	; 44
    491c:	82 bb       	out	0x12, r24	; 18
    491e:	00 00       	nop
    4920:	90 93 62 00 	sts	0x0062, r25
    4924:	20 93 62 00 	sts	0x0062, r18
    4928:	b0 92 62 00 	sts	0x0062, r11
    492c:	f2 94       	swap	r15
    492e:	9f e0       	ldi	r25, 0x0F	; 15
    4930:	f9 22       	and	r15, r25
    4932:	4e 2d       	mov	r20, r14
    4934:	50 e0       	ldi	r21, 0x00	; 0
    4936:	44 0f       	add	r20, r20
    4938:	55 1f       	adc	r21, r21
    493a:	0d 90       	ld	r0, X+
    493c:	bc 91       	ld	r27, X
    493e:	a0 2d       	mov	r26, r0
    4940:	70 e0       	ldi	r23, 0x00	; 0
    4942:	32 c0       	rjmp	.+100    	; 0x49a8 <main+0x1980>
    4944:	00 81       	ld	r16, Z
    4946:	11 81       	ldd	r17, Z+1	; 0x01
    4948:	2f e0       	ldi	r18, 0x0F	; 15
    494a:	30 e0       	ldi	r19, 0x00	; 0
    494c:	c8 01       	movw	r24, r16
    494e:	02 2e       	mov	r0, r18
    4950:	02 c0       	rjmp	.+4      	; 0x4956 <main+0x192e>
    4952:	96 95       	lsr	r25
    4954:	87 95       	ror	r24
    4956:	0a 94       	dec	r0
    4958:	e2 f7       	brpl	.-8      	; 0x4952 <main+0x192a>
    495a:	80 ff       	sbrs	r24, 0
    495c:	0a c0       	rjmp	.+20     	; 0x4972 <main+0x194a>
    495e:	a0 92 62 00 	sts	0x0062, r10
    4962:	12 ba       	out	0x12, r1	; 18
    4964:	00 00       	nop
    4966:	b0 92 62 00 	sts	0x0062, r11
    496a:	a0 92 62 00 	sts	0x0062, r10
    496e:	d2 ba       	out	0x12, r13	; 18
    4970:	0b c0       	rjmp	.+22     	; 0x4988 <main+0x1960>
    4972:	a0 92 62 00 	sts	0x0062, r10
    4976:	66 24       	eor	r6, r6
    4978:	6a 94       	dec	r6
    497a:	62 ba       	out	0x12, r6	; 18
    497c:	00 00       	nop
    497e:	b0 92 62 00 	sts	0x0062, r11
    4982:	a0 92 62 00 	sts	0x0062, r10
    4986:	62 ba       	out	0x12, r6	; 18
    4988:	00 00       	nop
    498a:	b0 92 62 00 	sts	0x0062, r11
    498e:	21 50       	subi	r18, 0x01	; 1
    4990:	30 40       	sbci	r19, 0x00	; 0
    4992:	8f ef       	ldi	r24, 0xFF	; 255
    4994:	2f 3f       	cpi	r18, 0xFF	; 255
    4996:	38 07       	cpc	r19, r24
    4998:	c9 f6       	brne	.-78     	; 0x494c <main+0x1924>
    499a:	6f 5f       	subi	r22, 0xFF	; 255
    499c:	32 96       	adiw	r30, 0x02	; 2
    499e:	6e 15       	cp	r22, r14
    49a0:	88 f2       	brcs	.-94     	; 0x4944 <main+0x191c>
    49a2:	7f 5f       	subi	r23, 0xFF	; 255
    49a4:	a4 0f       	add	r26, r20
    49a6:	b5 1f       	adc	r27, r21
    49a8:	7f 15       	cp	r23, r15
    49aa:	08 f0       	brcs	.+2      	; 0x49ae <main+0x1986>
    49ac:	c8 c0       	rjmp	.+400    	; 0x4b3e <main+0x1b16>
    49ae:	fd 01       	movw	r30, r26
    49b0:	60 e0       	ldi	r22, 0x00	; 0
    49b2:	f5 cf       	rjmp	.-22     	; 0x499e <main+0x1976>
    49b4:	d2 01       	movw	r26, r4
    49b6:	14 96       	adiw	r26, 0x04	; 4
    49b8:	cc 90       	ld	r12, X
    49ba:	14 97       	sbiw	r26, 0x04	; 4
    49bc:	12 96       	adiw	r26, 0x02	; 2
    49be:	dc 90       	ld	r13, X
    49c0:	12 97       	sbiw	r26, 0x02	; 2
    49c2:	13 96       	adiw	r26, 0x03	; 3
    49c4:	ec 90       	ld	r14, X
    49c6:	13 97       	sbiw	r26, 0x03	; 3
    49c8:	11 96       	adiw	r26, 0x01	; 1
    49ca:	fc 90       	ld	r15, X
    49cc:	82 2f       	mov	r24, r18
    49ce:	90 e0       	ldi	r25, 0x00	; 0
    49d0:	fc 01       	movw	r30, r24
    49d2:	ee 0f       	add	r30, r30
    49d4:	ff 1f       	adc	r31, r31
    49d6:	e8 0f       	add	r30, r24
    49d8:	f9 1f       	adc	r31, r25
    49da:	ee 0f       	add	r30, r30
    49dc:	ff 1f       	adc	r31, r31
    49de:	e7 54       	subi	r30, 0x47	; 71
    49e0:	fa 4f       	sbci	r31, 0xFA	; 250
    49e2:	00 81       	ld	r16, Z
    49e4:	11 81       	ldd	r17, Z+1	; 0x01
    49e6:	64 80       	ldd	r6, Z+4	; 0x04
    49e8:	75 80       	ldd	r7, Z+5	; 0x05
    49ea:	22 23       	and	r18, r18
    49ec:	11 f4       	brne	.+4      	; 0x49f2 <main+0x19ca>
    49ee:	00 e0       	ldi	r16, 0x00	; 0
    49f0:	10 e0       	ldi	r17, 0x00	; 0
    49f2:	2e 2d       	mov	r18, r14
    49f4:	30 e0       	ldi	r19, 0x00	; 0
    49f6:	2f 5f       	subi	r18, 0xFF	; 255
    49f8:	3f 4f       	sbci	r19, 0xFF	; 255
    49fa:	2f 19       	sub	r18, r15
    49fc:	31 09       	sbc	r19, r1
    49fe:	8c 2d       	mov	r24, r12
    4a00:	90 e0       	ldi	r25, 0x00	; 0
    4a02:	01 96       	adiw	r24, 0x01	; 1
    4a04:	8d 19       	sub	r24, r13
    4a06:	91 09       	sbc	r25, r1
    4a08:	fc 01       	movw	r30, r24
    4a0a:	2e 9f       	mul	r18, r30
    4a0c:	c0 01       	movw	r24, r0
    4a0e:	2f 9f       	mul	r18, r31
    4a10:	90 0d       	add	r25, r0
    4a12:	3e 9f       	mul	r19, r30
    4a14:	90 0d       	add	r25, r0
    4a16:	11 24       	eor	r1, r1
    4a18:	60 e1       	ldi	r22, 0x10	; 16
    4a1a:	70 e0       	ldi	r23, 0x00	; 0
    4a1c:	0e 94 39 2c 	call	0x5872	; 0x5872 <__divmodhi4>
    4a20:	4b e1       	ldi	r20, 0x1B	; 27
    4a22:	40 93 62 00 	sts	0x0062, r20
    4a26:	9a e1       	ldi	r25, 0x1A	; 26
    4a28:	90 93 62 00 	sts	0x0062, r25
    4a2c:	32 e1       	ldi	r19, 0x12	; 18
    4a2e:	30 93 62 00 	sts	0x0062, r19
    4a32:	8a e2       	ldi	r24, 0x2A	; 42
    4a34:	82 bb       	out	0x12, r24	; 18
    4a36:	00 00       	nop
    4a38:	90 93 62 00 	sts	0x0062, r25
    4a3c:	2e e1       	ldi	r18, 0x1E	; 30
    4a3e:	20 93 62 00 	sts	0x0062, r18
    4a42:	b0 92 62 00 	sts	0x0062, r11
    4a46:	a0 92 62 00 	sts	0x0062, r10
    4a4a:	f2 ba       	out	0x12, r15	; 18
    4a4c:	00 00       	nop
    4a4e:	b0 92 62 00 	sts	0x0062, r11
    4a52:	a0 92 62 00 	sts	0x0062, r10
    4a56:	e2 ba       	out	0x12, r14	; 18
    4a58:	00 00       	nop
    4a5a:	b0 92 62 00 	sts	0x0062, r11
    4a5e:	40 93 62 00 	sts	0x0062, r20
    4a62:	90 93 62 00 	sts	0x0062, r25
    4a66:	30 93 62 00 	sts	0x0062, r19
    4a6a:	8b e2       	ldi	r24, 0x2B	; 43
    4a6c:	82 bb       	out	0x12, r24	; 18
    4a6e:	00 00       	nop
    4a70:	90 93 62 00 	sts	0x0062, r25
    4a74:	20 93 62 00 	sts	0x0062, r18
    4a78:	b0 92 62 00 	sts	0x0062, r11
    4a7c:	a0 92 62 00 	sts	0x0062, r10
    4a80:	d2 ba       	out	0x12, r13	; 18
    4a82:	00 00       	nop
    4a84:	b0 92 62 00 	sts	0x0062, r11
    4a88:	a0 92 62 00 	sts	0x0062, r10
    4a8c:	c2 ba       	out	0x12, r12	; 18
    4a8e:	00 00       	nop
    4a90:	b0 92 62 00 	sts	0x0062, r11
    4a94:	40 93 62 00 	sts	0x0062, r20
    4a98:	90 93 62 00 	sts	0x0062, r25
    4a9c:	30 93 62 00 	sts	0x0062, r19
    4aa0:	8c e2       	ldi	r24, 0x2C	; 44
    4aa2:	82 bb       	out	0x12, r24	; 18
    4aa4:	00 00       	nop
    4aa6:	90 93 62 00 	sts	0x0062, r25
    4aaa:	20 93 62 00 	sts	0x0062, r18
    4aae:	b0 92 62 00 	sts	0x0062, r11
    4ab2:	01 15       	cp	r16, r1
    4ab4:	11 05       	cpc	r17, r1
    4ab6:	71 f1       	breq	.+92     	; 0x4b14 <main+0x1aec>
    4ab8:	f8 01       	movw	r30, r16
    4aba:	45 91       	lpm	r20, Z+
    4abc:	54 91       	lpm	r21, Z+
    4abe:	2f e0       	ldi	r18, 0x0F	; 15
    4ac0:	30 e0       	ldi	r19, 0x00	; 0
    4ac2:	ca 01       	movw	r24, r20
    4ac4:	02 2e       	mov	r0, r18
    4ac6:	02 c0       	rjmp	.+4      	; 0x4acc <main+0x1aa4>
    4ac8:	96 95       	lsr	r25
    4aca:	87 95       	ror	r24
    4acc:	0a 94       	dec	r0
    4ace:	e2 f7       	brpl	.-8      	; 0x4ac8 <main+0x1aa0>
    4ad0:	80 ff       	sbrs	r24, 0
    4ad2:	0a c0       	rjmp	.+20     	; 0x4ae8 <main+0x1ac0>
    4ad4:	a0 92 62 00 	sts	0x0062, r10
    4ad8:	72 ba       	out	0x12, r7	; 18
    4ada:	00 00       	nop
    4adc:	b0 92 62 00 	sts	0x0062, r11
    4ae0:	a0 92 62 00 	sts	0x0062, r10
    4ae4:	62 ba       	out	0x12, r6	; 18
    4ae6:	0a c0       	rjmp	.+20     	; 0x4afc <main+0x1ad4>
    4ae8:	a0 92 62 00 	sts	0x0062, r10
    4aec:	ff ef       	ldi	r31, 0xFF	; 255
    4aee:	f2 bb       	out	0x12, r31	; 18
    4af0:	00 00       	nop
    4af2:	b0 92 62 00 	sts	0x0062, r11
    4af6:	a0 92 62 00 	sts	0x0062, r10
    4afa:	f2 bb       	out	0x12, r31	; 18
    4afc:	00 00       	nop
    4afe:	b0 92 62 00 	sts	0x0062, r11
    4b02:	21 50       	subi	r18, 0x01	; 1
    4b04:	30 40       	sbci	r19, 0x00	; 0
    4b06:	8f ef       	ldi	r24, 0xFF	; 255
    4b08:	2f 3f       	cpi	r18, 0xFF	; 255
    4b0a:	38 07       	cpc	r19, r24
    4b0c:	d1 f6       	brne	.-76     	; 0x4ac2 <main+0x1a9a>
    4b0e:	0e 5f       	subi	r16, 0xFE	; 254
    4b10:	1f 4f       	sbci	r17, 0xFF	; 255
    4b12:	11 c0       	rjmp	.+34     	; 0x4b36 <main+0x1b0e>
    4b14:	80 e0       	ldi	r24, 0x00	; 0
    4b16:	a0 92 62 00 	sts	0x0062, r10
    4b1a:	9f ef       	ldi	r25, 0xFF	; 255
    4b1c:	92 bb       	out	0x12, r25	; 18
    4b1e:	00 00       	nop
    4b20:	b0 92 62 00 	sts	0x0062, r11
    4b24:	a0 92 62 00 	sts	0x0062, r10
    4b28:	92 bb       	out	0x12, r25	; 18
    4b2a:	00 00       	nop
    4b2c:	b0 92 62 00 	sts	0x0062, r11
    4b30:	8f 5f       	subi	r24, 0xFF	; 255
    4b32:	80 31       	cpi	r24, 0x10	; 16
    4b34:	81 f7       	brne	.-32     	; 0x4b16 <main+0x1aee>
    4b36:	61 50       	subi	r22, 0x01	; 1
    4b38:	70 40       	sbci	r23, 0x00	; 0
    4b3a:	09 f0       	breq	.+2      	; 0x4b3e <main+0x1b16>
    4b3c:	ba cf       	rjmp	.-140    	; 0x4ab2 <main+0x1a8a>
    4b3e:	d2 01       	movw	r26, r4
    4b40:	11 96       	adiw	r26, 0x01	; 1
    4b42:	8c 91       	ld	r24, X
    4b44:	11 97       	sbiw	r26, 0x01	; 1
    4b46:	16 96       	adiw	r26, 0x06	; 6
    4b48:	8c 93       	st	X, r24
    4b4a:	16 97       	sbiw	r26, 0x06	; 6
    4b4c:	12 96       	adiw	r26, 0x02	; 2
    4b4e:	8c 91       	ld	r24, X
    4b50:	12 97       	sbiw	r26, 0x02	; 2
    4b52:	17 96       	adiw	r26, 0x07	; 7
    4b54:	8c 93       	st	X, r24
    4b56:	17 97       	sbiw	r26, 0x07	; 7
    4b58:	13 96       	adiw	r26, 0x03	; 3
    4b5a:	8c 91       	ld	r24, X
    4b5c:	13 97       	sbiw	r26, 0x03	; 3
    4b5e:	18 96       	adiw	r26, 0x08	; 8
    4b60:	8c 93       	st	X, r24
    4b62:	18 97       	sbiw	r26, 0x08	; 8
    4b64:	14 96       	adiw	r26, 0x04	; 4
    4b66:	8c 91       	ld	r24, X
    4b68:	14 97       	sbiw	r26, 0x04	; 4
    4b6a:	19 96       	adiw	r26, 0x09	; 9
    4b6c:	8c 93       	st	X, r24
    4b6e:	19 97       	sbiw	r26, 0x09	; 9
    4b70:	15 96       	adiw	r26, 0x05	; 5
    4b72:	8c 91       	ld	r24, X
    4b74:	15 97       	sbiw	r26, 0x05	; 5
    4b76:	8e 7d       	andi	r24, 0xDE	; 222
    4b78:	80 62       	ori	r24, 0x20	; 32
    4b7a:	15 96       	adiw	r26, 0x05	; 5
    4b7c:	8c 93       	st	X, r24
    4b7e:	f2 01       	movw	r30, r4
    4b80:	85 81       	ldd	r24, Z+5	; 0x05
    4b82:	81 ff       	sbrs	r24, 1
    4b84:	8e c0       	rjmp	.+284    	; 0x4ca2 <main+0x1c7a>
    4b86:	64 85       	ldd	r22, Z+12	; 0x0c
    4b88:	75 85       	ldd	r23, Z+13	; 0x0d
    4b8a:	02 84       	ldd	r0, Z+10	; 0x0a
    4b8c:	f3 85       	ldd	r31, Z+11	; 0x0b
    4b8e:	e0 2d       	mov	r30, r0
    4b90:	64 87       	std	Z+12, r22	; 0x0c
    4b92:	75 87       	std	Z+13, r23	; 0x0d
    4b94:	d2 01       	movw	r26, r4
    4b96:	1c 96       	adiw	r26, 0x0c	; 12
    4b98:	8d 91       	ld	r24, X+
    4b9a:	9c 91       	ld	r25, X
    4b9c:	1d 97       	sbiw	r26, 0x0d	; 13
    4b9e:	dc 01       	movw	r26, r24
    4ba0:	1b 96       	adiw	r26, 0x0b	; 11
    4ba2:	fc 93       	st	X, r31
    4ba4:	ee 93       	st	-X, r30
    4ba6:	1a 97       	sbiw	r26, 0x0a	; 10
    4ba8:	21 e8       	ldi	r18, 0x81	; 129
    4baa:	33 e0       	ldi	r19, 0x03	; 3
    4bac:	49 e7       	ldi	r20, 0x79	; 121
    4bae:	53 e0       	ldi	r21, 0x03	; 3
    4bb0:	8a 01       	movw	r16, r20
    4bb2:	e0 e0       	ldi	r30, 0x00	; 0
    4bb4:	f0 e0       	ldi	r31, 0x00	; 0
    4bb6:	d9 01       	movw	r26, r18
    4bb8:	8d 91       	ld	r24, X+
    4bba:	9c 91       	ld	r25, X
    4bbc:	48 16       	cp	r4, r24
    4bbe:	59 06       	cpc	r5, r25
    4bc0:	c9 f4       	brne	.+50     	; 0x4bf4 <main+0x1bcc>
    4bc2:	cf 01       	movw	r24, r30
    4bc4:	88 0f       	add	r24, r24
    4bc6:	99 1f       	adc	r25, r25
    4bc8:	fc 01       	movw	r30, r24
    4bca:	e7 58       	subi	r30, 0x87	; 135
    4bcc:	fc 4f       	sbci	r31, 0xFC	; 252
    4bce:	20 81       	ld	r18, Z
    4bd0:	31 81       	ldd	r19, Z+1	; 0x01
    4bd2:	dc 01       	movw	r26, r24
    4bd4:	af 57       	subi	r26, 0x7F	; 127
    4bd6:	bc 4f       	sbci	r27, 0xFC	; 252
    4bd8:	42 16       	cp	r4, r18
    4bda:	53 06       	cpc	r5, r19
    4bdc:	29 f4       	brne	.+10     	; 0x4be8 <main+0x1bc0>
    4bde:	11 82       	std	Z+1, r1	; 0x01
    4be0:	10 82       	st	Z, r1
    4be2:	1d 92       	st	X+, r1
    4be4:	1c 92       	st	X, r1
    4be6:	20 c0       	rjmp	.+64     	; 0x4c28 <main+0x1c00>
    4be8:	f2 01       	movw	r30, r4
    4bea:	82 85       	ldd	r24, Z+10	; 0x0a
    4bec:	93 85       	ldd	r25, Z+11	; 0x0b
    4bee:	8d 93       	st	X+, r24
    4bf0:	9c 93       	st	X, r25
    4bf2:	1a c0       	rjmp	.+52     	; 0x4c28 <main+0x1c00>
    4bf4:	d8 01       	movw	r26, r16
    4bf6:	8d 91       	ld	r24, X+
    4bf8:	9c 91       	ld	r25, X
    4bfa:	48 16       	cp	r4, r24
    4bfc:	59 06       	cpc	r5, r25
    4bfe:	61 f4       	brne	.+24     	; 0x4c18 <main+0x1bf0>
    4c00:	ee 0f       	add	r30, r30
    4c02:	ff 1f       	adc	r31, r31
    4c04:	e7 58       	subi	r30, 0x87	; 135
    4c06:	fc 4f       	sbci	r31, 0xFC	; 252
    4c08:	d2 01       	movw	r26, r4
    4c0a:	1c 96       	adiw	r26, 0x0c	; 12
    4c0c:	8d 91       	ld	r24, X+
    4c0e:	9c 91       	ld	r25, X
    4c10:	1d 97       	sbiw	r26, 0x0d	; 13
    4c12:	91 83       	std	Z+1, r25	; 0x01
    4c14:	80 83       	st	Z, r24
    4c16:	08 c0       	rjmp	.+16     	; 0x4c28 <main+0x1c00>
    4c18:	31 96       	adiw	r30, 0x01	; 1
    4c1a:	2e 5f       	subi	r18, 0xFE	; 254
    4c1c:	3f 4f       	sbci	r19, 0xFF	; 255
    4c1e:	0e 5f       	subi	r16, 0xFE	; 254
    4c20:	1f 4f       	sbci	r17, 0xFF	; 255
    4c22:	e4 30       	cpi	r30, 0x04	; 4
    4c24:	f1 05       	cpc	r31, r1
    4c26:	39 f6       	brne	.-114    	; 0x4bb6 <main+0x1b8e>
    4c28:	80 91 75 03 	lds	r24, 0x0375
    4c2c:	90 91 76 03 	lds	r25, 0x0376
    4c30:	48 16       	cp	r4, r24
    4c32:	59 06       	cpc	r5, r25
    4c34:	d9 f4       	brne	.+54     	; 0x4c6c <main+0x1c44>
    4c36:	f2 01       	movw	r30, r4
    4c38:	84 85       	ldd	r24, Z+12	; 0x0c
    4c3a:	95 85       	ldd	r25, Z+13	; 0x0d
    4c3c:	84 15       	cp	r24, r4
    4c3e:	95 05       	cpc	r25, r5
    4c40:	29 f4       	brne	.+10     	; 0x4c4c <main+0x1c24>
    4c42:	10 92 76 03 	sts	0x0376, r1
    4c46:	10 92 75 03 	sts	0x0375, r1
    4c4a:	10 c0       	rjmp	.+32     	; 0x4c6c <main+0x1c44>
    4c4c:	da 01       	movw	r26, r20
    4c4e:	8d 91       	ld	r24, X+
    4c50:	9c 91       	ld	r25, X
    4c52:	00 97       	sbiw	r24, 0x00	; 0
    4c54:	29 f0       	breq	.+10     	; 0x4c60 <main+0x1c38>
    4c56:	90 93 76 03 	sts	0x0376, r25
    4c5a:	80 93 75 03 	sts	0x0375, r24
    4c5e:	06 c0       	rjmp	.+12     	; 0x4c6c <main+0x1c44>
    4c60:	4e 5f       	subi	r20, 0xFE	; 254
    4c62:	5f 4f       	sbci	r21, 0xFF	; 255
    4c64:	b3 e0       	ldi	r27, 0x03	; 3
    4c66:	41 38       	cpi	r20, 0x81	; 129
    4c68:	5b 07       	cpc	r21, r27
    4c6a:	81 f7       	brne	.-32     	; 0x4c4c <main+0x1c24>
    4c6c:	80 91 73 03 	lds	r24, 0x0373
    4c70:	90 91 74 03 	lds	r25, 0x0374
    4c74:	00 97       	sbiw	r24, 0x00	; 0
    4c76:	41 f4       	brne	.+16     	; 0x4c88 <main+0x1c60>
    4c78:	50 92 74 03 	sts	0x0374, r5
    4c7c:	40 92 73 03 	sts	0x0373, r4
    4c80:	f2 01       	movw	r30, r4
    4c82:	15 86       	std	Z+13, r1	; 0x0d
    4c84:	14 86       	std	Z+12, r1	; 0x0c
    4c86:	09 c0       	rjmp	.+18     	; 0x4c9a <main+0x1c72>
    4c88:	d2 01       	movw	r26, r4
    4c8a:	1d 96       	adiw	r26, 0x0d	; 13
    4c8c:	9c 93       	st	X, r25
    4c8e:	8e 93       	st	-X, r24
    4c90:	1c 97       	sbiw	r26, 0x0c	; 12
    4c92:	50 92 74 03 	sts	0x0374, r5
    4c96:	40 92 73 03 	sts	0x0373, r4
    4c9a:	f2 01       	movw	r30, r4
    4c9c:	15 82       	std	Z+5, r1	; 0x05
    4c9e:	2b 01       	movw	r4, r22
    4ca0:	14 c0       	rjmp	.+40     	; 0x4cca <main+0x1ca2>
    4ca2:	83 ff       	sbrs	r24, 3
    4ca4:	05 c0       	rjmp	.+10     	; 0x4cb0 <main+0x1c88>
    4ca6:	87 7e       	andi	r24, 0xE7	; 231
    4ca8:	80 61       	ori	r24, 0x10	; 16
    4caa:	d2 01       	movw	r26, r4
    4cac:	15 96       	adiw	r26, 0x05	; 5
    4cae:	8c 93       	st	X, r24
    4cb0:	f2 01       	movw	r30, r4
    4cb2:	44 84       	ldd	r4, Z+12	; 0x0c
    4cb4:	55 84       	ldd	r5, Z+13	; 0x0d
    4cb6:	09 c0       	rjmp	.+18     	; 0x4cca <main+0x1ca2>
    4cb8:	d2 01       	movw	r26, r4
    4cba:	1c 96       	adiw	r26, 0x0c	; 12
    4cbc:	4d 90       	ld	r4, X+
    4cbe:	5c 90       	ld	r5, X
    4cc0:	1d 97       	sbiw	r26, 0x0d	; 13
    4cc2:	48 14       	cp	r4, r8
    4cc4:	59 04       	cpc	r5, r9
    4cc6:	09 f0       	breq	.+2      	; 0x4cca <main+0x1ca2>
    4cc8:	3e cd       	rjmp	.-1412   	; 0x4746 <main+0x171e>
    4cca:	41 14       	cp	r4, r1
    4ccc:	51 04       	cpc	r5, r1
    4cce:	41 f0       	breq	.+16     	; 0x4ce0 <main+0x1cb8>
    4cd0:	48 14       	cp	r4, r8
    4cd2:	59 04       	cpc	r5, r9
    4cd4:	29 f0       	breq	.+10     	; 0x4ce0 <main+0x1cb8>
    4cd6:	50 92 78 03 	sts	0x0378, r5
    4cda:	40 92 77 03 	sts	0x0377, r4
    4cde:	03 c0       	rjmp	.+6      	; 0x4ce6 <main+0x1cbe>
    4ce0:	80 e8       	ldi	r24, 0x80	; 128
    4ce2:	80 93 b1 02 	sts	0x02B1, r24
		TOUR_UPDATE();
    4ce6:	80 91 64 03 	lds	r24, 0x0364
    4cea:	88 23       	and	r24, r24
    4cec:	09 f4       	brne	.+2      	; 0x4cf0 <main+0x1cc8>
    4cee:	c9 c4       	rjmp	.+2450   	; 0x5682 <main+0x265a>
    4cf0:	20 91 6d 03 	lds	r18, 0x036D
    4cf4:	30 91 6e 03 	lds	r19, 0x036E
    4cf8:	40 91 6f 03 	lds	r20, 0x036F
    4cfc:	50 91 70 03 	lds	r21, 0x0370
    4d00:	80 91 ac 02 	lds	r24, 0x02AC
    4d04:	90 91 ad 02 	lds	r25, 0x02AD
    4d08:	a0 91 ae 02 	lds	r26, 0x02AE
    4d0c:	b0 91 af 02 	lds	r27, 0x02AF
    4d10:	28 17       	cp	r18, r24
    4d12:	39 07       	cpc	r19, r25
    4d14:	4a 07       	cpc	r20, r26
    4d16:	5b 07       	cpc	r21, r27
    4d18:	08 f4       	brcc	.+2      	; 0x4d1c <main+0x1cf4>
    4d1a:	a7 c4       	rjmp	.+2382   	; 0x566a <main+0x2642>
    4d1c:	00 91 b0 02 	lds	r16, 0x02B0
    4d20:	01 50       	subi	r16, 0x01	; 1
    4d22:	00 93 b0 02 	sts	0x02B0, r16
    4d26:	00 23       	and	r16, r16
    4d28:	09 f4       	brne	.+2      	; 0x4d2c <main+0x1d04>
    4d2a:	4a c4       	rjmp	.+2196   	; 0x55c0 <main+0x2598>
    4d2c:	64 c4       	rjmp	.+2248   	; 0x55f6 <main+0x25ce>
    4d2e:	20 91 71 03 	lds	r18, 0x0371
    4d32:	30 91 72 03 	lds	r19, 0x0372
    4d36:	f9 01       	movw	r30, r18
    4d38:	80 81       	ld	r24, Z
    4d3a:	90 e0       	ldi	r25, 0x00	; 0
    4d3c:	fc 01       	movw	r30, r24
    4d3e:	b4 97       	sbiw	r30, 0x24	; 36
    4d40:	e2 33       	cpi	r30, 0x32	; 50
    4d42:	f1 05       	cpc	r31, r1
    4d44:	08 f0       	brcs	.+2      	; 0x4d48 <main+0x1d20>
    4d46:	33 c4       	rjmp	.+2150   	; 0x55ae <main+0x2586>
    4d48:	ea 5b       	subi	r30, 0xBA	; 186
    4d4a:	ff 4f       	sbci	r31, 0xFF	; 255
    4d4c:	ee 0f       	add	r30, r30
    4d4e:	ff 1f       	adc	r31, r31
    4d50:	05 90       	lpm	r0, Z+
    4d52:	f4 91       	lpm	r31, Z+
    4d54:	e0 2d       	mov	r30, r0
    4d56:	09 94       	ijmp
    4d58:	80 91 ab 02 	lds	r24, 0x02AB
    4d5c:	28 2f       	mov	r18, r24
    4d5e:	30 e0       	ldi	r19, 0x00	; 0
    4d60:	85 30       	cpi	r24, 0x05	; 5
    4d62:	38 f0       	brcs	.+14     	; 0x4d72 <main+0x1d4a>
    4d64:	24 50       	subi	r18, 0x04	; 4
    4d66:	30 40       	sbci	r19, 0x00	; 0
    4d68:	86 ec       	ldi	r24, 0xC6	; 198
    4d6a:	9d e0       	ldi	r25, 0x0D	; 13
    4d6c:	a0 e0       	ldi	r26, 0x00	; 0
    4d6e:	b0 e0       	ldi	r27, 0x00	; 0
    4d70:	c9 c0       	rjmp	.+402    	; 0x4f04 <main+0x1edc>
    4d72:	c7 01       	movw	r24, r14
    4d74:	82 1b       	sub	r24, r18
    4d76:	93 0b       	sbc	r25, r19
    4d78:	26 ec       	ldi	r18, 0xC6	; 198
    4d7a:	3d e0       	ldi	r19, 0x0D	; 13
    4d7c:	40 e0       	ldi	r20, 0x00	; 0
    4d7e:	50 e0       	ldi	r21, 0x00	; 0
    4d80:	e5 c0       	rjmp	.+458    	; 0x4f4c <main+0x1f24>
    4d82:	80 91 ab 02 	lds	r24, 0x02AB
    4d86:	28 2f       	mov	r18, r24
    4d88:	30 e0       	ldi	r19, 0x00	; 0
    4d8a:	85 30       	cpi	r24, 0x05	; 5
    4d8c:	38 f0       	brcs	.+14     	; 0x4d9c <main+0x1d74>
    4d8e:	24 50       	subi	r18, 0x04	; 4
    4d90:	30 40       	sbci	r19, 0x00	; 0
    4d92:	83 e5       	ldi	r24, 0x53	; 83
    4d94:	9c e0       	ldi	r25, 0x0C	; 12
    4d96:	a0 e0       	ldi	r26, 0x00	; 0
    4d98:	b0 e0       	ldi	r27, 0x00	; 0
    4d9a:	b4 c0       	rjmp	.+360    	; 0x4f04 <main+0x1edc>
    4d9c:	c7 01       	movw	r24, r14
    4d9e:	82 1b       	sub	r24, r18
    4da0:	93 0b       	sbc	r25, r19
    4da2:	23 e5       	ldi	r18, 0x53	; 83
    4da4:	3c e0       	ldi	r19, 0x0C	; 12
    4da6:	40 e0       	ldi	r20, 0x00	; 0
    4da8:	50 e0       	ldi	r21, 0x00	; 0
    4daa:	d0 c0       	rjmp	.+416    	; 0x4f4c <main+0x1f24>
    4dac:	80 91 ab 02 	lds	r24, 0x02AB
    4db0:	28 2f       	mov	r18, r24
    4db2:	30 e0       	ldi	r19, 0x00	; 0
    4db4:	85 30       	cpi	r24, 0x05	; 5
    4db6:	38 f0       	brcs	.+14     	; 0x4dc6 <main+0x1d9e>
    4db8:	24 50       	subi	r18, 0x04	; 4
    4dba:	30 40       	sbci	r19, 0x00	; 0
    4dbc:	8e ee       	ldi	r24, 0xEE	; 238
    4dbe:	9a e0       	ldi	r25, 0x0A	; 10
    4dc0:	a0 e0       	ldi	r26, 0x00	; 0
    4dc2:	b0 e0       	ldi	r27, 0x00	; 0
    4dc4:	9f c0       	rjmp	.+318    	; 0x4f04 <main+0x1edc>
    4dc6:	c7 01       	movw	r24, r14
    4dc8:	82 1b       	sub	r24, r18
    4dca:	93 0b       	sbc	r25, r19
    4dcc:	2e ee       	ldi	r18, 0xEE	; 238
    4dce:	3a e0       	ldi	r19, 0x0A	; 10
    4dd0:	40 e0       	ldi	r20, 0x00	; 0
    4dd2:	50 e0       	ldi	r21, 0x00	; 0
    4dd4:	bb c0       	rjmp	.+374    	; 0x4f4c <main+0x1f24>
    4dd6:	80 91 ab 02 	lds	r24, 0x02AB
    4dda:	28 2f       	mov	r18, r24
    4ddc:	30 e0       	ldi	r19, 0x00	; 0
    4dde:	85 30       	cpi	r24, 0x05	; 5
    4de0:	38 f0       	brcs	.+14     	; 0x4df0 <main+0x1dc8>
    4de2:	24 50       	subi	r18, 0x04	; 4
    4de4:	30 40       	sbci	r19, 0x00	; 0
    4de6:	8f e4       	ldi	r24, 0x4F	; 79
    4de8:	9a e0       	ldi	r25, 0x0A	; 10
    4dea:	a0 e0       	ldi	r26, 0x00	; 0
    4dec:	b0 e0       	ldi	r27, 0x00	; 0
    4dee:	8a c0       	rjmp	.+276    	; 0x4f04 <main+0x1edc>
    4df0:	c7 01       	movw	r24, r14
    4df2:	82 1b       	sub	r24, r18
    4df4:	93 0b       	sbc	r25, r19
    4df6:	2f e4       	ldi	r18, 0x4F	; 79
    4df8:	3a e0       	ldi	r19, 0x0A	; 10
    4dfa:	40 e0       	ldi	r20, 0x00	; 0
    4dfc:	50 e0       	ldi	r21, 0x00	; 0
    4dfe:	a6 c0       	rjmp	.+332    	; 0x4f4c <main+0x1f24>
    4e00:	80 91 ab 02 	lds	r24, 0x02AB
    4e04:	28 2f       	mov	r18, r24
    4e06:	30 e0       	ldi	r19, 0x00	; 0
    4e08:	85 30       	cpi	r24, 0x05	; 5
    4e0a:	38 f0       	brcs	.+14     	; 0x4e1a <main+0x1df2>
    4e0c:	24 50       	subi	r18, 0x04	; 4
    4e0e:	30 40       	sbci	r19, 0x00	; 0
    4e10:	85 e3       	ldi	r24, 0x35	; 53
    4e12:	99 e0       	ldi	r25, 0x09	; 9
    4e14:	a0 e0       	ldi	r26, 0x00	; 0
    4e16:	b0 e0       	ldi	r27, 0x00	; 0
    4e18:	75 c0       	rjmp	.+234    	; 0x4f04 <main+0x1edc>
    4e1a:	c7 01       	movw	r24, r14
    4e1c:	82 1b       	sub	r24, r18
    4e1e:	93 0b       	sbc	r25, r19
    4e20:	25 e3       	ldi	r18, 0x35	; 53
    4e22:	39 e0       	ldi	r19, 0x09	; 9
    4e24:	40 e0       	ldi	r20, 0x00	; 0
    4e26:	50 e0       	ldi	r21, 0x00	; 0
    4e28:	91 c0       	rjmp	.+290    	; 0x4f4c <main+0x1f24>
    4e2a:	80 91 ab 02 	lds	r24, 0x02AB
    4e2e:	28 2f       	mov	r18, r24
    4e30:	30 e0       	ldi	r19, 0x00	; 0
    4e32:	85 30       	cpi	r24, 0x05	; 5
    4e34:	28 f0       	brcs	.+10     	; 0x4e40 <main+0x1e18>
    4e36:	24 50       	subi	r18, 0x04	; 4
    4e38:	30 40       	sbci	r19, 0x00	; 0
    4e3a:	d2 01       	movw	r26, r4
    4e3c:	c1 01       	movw	r24, r2
    4e3e:	62 c0       	rjmp	.+196    	; 0x4f04 <main+0x1edc>
    4e40:	c7 01       	movw	r24, r14
    4e42:	82 1b       	sub	r24, r18
    4e44:	93 0b       	sbc	r25, r19
    4e46:	a2 01       	movw	r20, r4
    4e48:	91 01       	movw	r18, r2
    4e4a:	80 c0       	rjmp	.+256    	; 0x4f4c <main+0x1f24>
    4e4c:	80 91 ab 02 	lds	r24, 0x02AB
    4e50:	28 2f       	mov	r18, r24
    4e52:	30 e0       	ldi	r19, 0x00	; 0
    4e54:	85 30       	cpi	r24, 0x05	; 5
    4e56:	28 f0       	brcs	.+10     	; 0x4e62 <main+0x1e3a>
    4e58:	24 50       	subi	r18, 0x04	; 4
    4e5a:	30 40       	sbci	r19, 0x00	; 0
    4e5c:	d4 01       	movw	r26, r8
    4e5e:	c3 01       	movw	r24, r6
    4e60:	51 c0       	rjmp	.+162    	; 0x4f04 <main+0x1edc>
    4e62:	c7 01       	movw	r24, r14
    4e64:	82 1b       	sub	r24, r18
    4e66:	93 0b       	sbc	r25, r19
    4e68:	a4 01       	movw	r20, r8
    4e6a:	93 01       	movw	r18, r6
    4e6c:	6f c0       	rjmp	.+222    	; 0x4f4c <main+0x1f24>
    4e6e:	80 91 ab 02 	lds	r24, 0x02AB
    4e72:	28 2f       	mov	r18, r24
    4e74:	30 e0       	ldi	r19, 0x00	; 0
    4e76:	85 30       	cpi	r24, 0x05	; 5
    4e78:	38 f0       	brcs	.+14     	; 0x4e88 <main+0x1e60>
    4e7a:	24 50       	subi	r18, 0x04	; 4
    4e7c:	30 40       	sbci	r19, 0x00	; 0
    4e7e:	82 e0       	ldi	r24, 0x02	; 2
    4e80:	9d e0       	ldi	r25, 0x0D	; 13
    4e82:	a0 e0       	ldi	r26, 0x00	; 0
    4e84:	b0 e0       	ldi	r27, 0x00	; 0
    4e86:	3e c0       	rjmp	.+124    	; 0x4f04 <main+0x1edc>
    4e88:	c7 01       	movw	r24, r14
    4e8a:	82 1b       	sub	r24, r18
    4e8c:	93 0b       	sbc	r25, r19
    4e8e:	22 e0       	ldi	r18, 0x02	; 2
    4e90:	3d e0       	ldi	r19, 0x0D	; 13
    4e92:	40 e0       	ldi	r20, 0x00	; 0
    4e94:	50 e0       	ldi	r21, 0x00	; 0
    4e96:	5a c0       	rjmp	.+180    	; 0x4f4c <main+0x1f24>
    4e98:	80 91 ab 02 	lds	r24, 0x02AB
    4e9c:	28 2f       	mov	r18, r24
    4e9e:	30 e0       	ldi	r19, 0x00	; 0
    4ea0:	85 30       	cpi	r24, 0x05	; 5
    4ea2:	38 f0       	brcs	.+14     	; 0x4eb2 <main+0x1e8a>
    4ea4:	24 50       	subi	r18, 0x04	; 4
    4ea6:	30 40       	sbci	r19, 0x00	; 0
    4ea8:	80 ea       	ldi	r24, 0xA0	; 160
    4eaa:	9b e0       	ldi	r25, 0x0B	; 11
    4eac:	a0 e0       	ldi	r26, 0x00	; 0
    4eae:	b0 e0       	ldi	r27, 0x00	; 0
    4eb0:	29 c0       	rjmp	.+82     	; 0x4f04 <main+0x1edc>
    4eb2:	c7 01       	movw	r24, r14
    4eb4:	82 1b       	sub	r24, r18
    4eb6:	93 0b       	sbc	r25, r19
    4eb8:	20 ea       	ldi	r18, 0xA0	; 160
    4eba:	3b e0       	ldi	r19, 0x0B	; 11
    4ebc:	40 e0       	ldi	r20, 0x00	; 0
    4ebe:	50 e0       	ldi	r21, 0x00	; 0
    4ec0:	45 c0       	rjmp	.+138    	; 0x4f4c <main+0x1f24>
    4ec2:	80 91 ab 02 	lds	r24, 0x02AB
    4ec6:	28 2f       	mov	r18, r24
    4ec8:	30 e0       	ldi	r19, 0x00	; 0
    4eca:	85 30       	cpi	r24, 0x05	; 5
    4ecc:	38 f0       	brcs	.+14     	; 0x4edc <main+0x1eb4>
    4ece:	24 50       	subi	r18, 0x04	; 4
    4ed0:	30 40       	sbci	r19, 0x00	; 0
    4ed2:	82 ec       	ldi	r24, 0xC2	; 194
    4ed4:	99 e0       	ldi	r25, 0x09	; 9
    4ed6:	a0 e0       	ldi	r26, 0x00	; 0
    4ed8:	b0 e0       	ldi	r27, 0x00	; 0
    4eda:	14 c0       	rjmp	.+40     	; 0x4f04 <main+0x1edc>
    4edc:	c7 01       	movw	r24, r14
    4ede:	82 1b       	sub	r24, r18
    4ee0:	93 0b       	sbc	r25, r19
    4ee2:	22 ec       	ldi	r18, 0xC2	; 194
    4ee4:	39 e0       	ldi	r19, 0x09	; 9
    4ee6:	40 e0       	ldi	r20, 0x00	; 0
    4ee8:	50 e0       	ldi	r21, 0x00	; 0
    4eea:	30 c0       	rjmp	.+96     	; 0x4f4c <main+0x1f24>
    4eec:	80 91 ab 02 	lds	r24, 0x02AB
    4ef0:	28 2f       	mov	r18, r24
    4ef2:	30 e0       	ldi	r19, 0x00	; 0
    4ef4:	85 30       	cpi	r24, 0x05	; 5
    4ef6:	70 f0       	brcs	.+28     	; 0x4f14 <main+0x1eec>
    4ef8:	24 50       	subi	r18, 0x04	; 4
    4efa:	30 40       	sbci	r19, 0x00	; 0
    4efc:	8c ea       	ldi	r24, 0xAC	; 172
    4efe:	98 e0       	ldi	r25, 0x08	; 8
    4f00:	a0 e0       	ldi	r26, 0x00	; 0
    4f02:	b0 e0       	ldi	r27, 0x00	; 0
    4f04:	04 c0       	rjmp	.+8      	; 0x4f0e <main+0x1ee6>
    4f06:	b6 95       	lsr	r27
    4f08:	a7 95       	ror	r26
    4f0a:	97 95       	ror	r25
    4f0c:	87 95       	ror	r24
    4f0e:	2a 95       	dec	r18
    4f10:	d2 f7       	brpl	.-12     	; 0x4f06 <main+0x1ede>
    4f12:	25 c0       	rjmp	.+74     	; 0x4f5e <main+0x1f36>
    4f14:	c7 01       	movw	r24, r14
    4f16:	82 1b       	sub	r24, r18
    4f18:	93 0b       	sbc	r25, r19
    4f1a:	2c ea       	ldi	r18, 0xAC	; 172
    4f1c:	38 e0       	ldi	r19, 0x08	; 8
    4f1e:	40 e0       	ldi	r20, 0x00	; 0
    4f20:	50 e0       	ldi	r21, 0x00	; 0
    4f22:	14 c0       	rjmp	.+40     	; 0x4f4c <main+0x1f24>
    4f24:	80 91 ab 02 	lds	r24, 0x02AB
    4f28:	28 2f       	mov	r18, r24
    4f2a:	30 e0       	ldi	r19, 0x00	; 0
    4f2c:	85 30       	cpi	r24, 0x05	; 5
    4f2e:	38 f0       	brcs	.+14     	; 0x4f3e <main+0x1f16>
    4f30:	24 50       	subi	r18, 0x04	; 4
    4f32:	30 40       	sbci	r19, 0x00	; 0
    4f34:	8b eb       	ldi	r24, 0xBB	; 187
    4f36:	97 e0       	ldi	r25, 0x07	; 7
    4f38:	a0 e0       	ldi	r26, 0x00	; 0
    4f3a:	b0 e0       	ldi	r27, 0x00	; 0
    4f3c:	e3 cf       	rjmp	.-58     	; 0x4f04 <main+0x1edc>
    4f3e:	c7 01       	movw	r24, r14
    4f40:	82 1b       	sub	r24, r18
    4f42:	93 0b       	sbc	r25, r19
    4f44:	2b eb       	ldi	r18, 0xBB	; 187
    4f46:	37 e0       	ldi	r19, 0x07	; 7
    4f48:	40 e0       	ldi	r20, 0x00	; 0
    4f4a:	50 e0       	ldi	r21, 0x00	; 0
    4f4c:	04 c0       	rjmp	.+8      	; 0x4f56 <main+0x1f2e>
    4f4e:	22 0f       	add	r18, r18
    4f50:	33 1f       	adc	r19, r19
    4f52:	44 1f       	adc	r20, r20
    4f54:	55 1f       	adc	r21, r21
    4f56:	8a 95       	dec	r24
    4f58:	d2 f7       	brpl	.-12     	; 0x4f4e <main+0x1f26>
    4f5a:	da 01       	movw	r26, r20
    4f5c:	c9 01       	movw	r24, r18
    4f5e:	90 93 6c 03 	sts	0x036C, r25
    4f62:	80 93 6b 03 	sts	0x036B, r24
    4f66:	f7 c2       	rjmp	.+1518   	; 0x5556 <main+0x252e>
    4f68:	a9 01       	movw	r20, r18
    4f6a:	4f 5f       	subi	r20, 0xFF	; 255
    4f6c:	5f 4f       	sbci	r21, 0xFF	; 255
    4f6e:	5a 83       	std	Y+2, r21	; 0x02
    4f70:	49 83       	std	Y+1, r20	; 0x01
    4f72:	50 93 72 03 	sts	0x0372, r21
    4f76:	40 93 71 03 	sts	0x0371, r20
    4f7a:	d9 01       	movw	r26, r18
    4f7c:	11 96       	adiw	r26, 0x01	; 1
    4f7e:	2c 91       	ld	r18, X
    4f80:	30 e0       	ldi	r19, 0x00	; 0
    4f82:	2e 5c       	subi	r18, 0xCE	; 206
    4f84:	3f 4f       	sbci	r19, 0xFF	; 255
    4f86:	44 27       	eor	r20, r20
    4f88:	37 fd       	sbrc	r19, 7
    4f8a:	40 95       	com	r20
    4f8c:	54 2f       	mov	r21, r20
    4f8e:	68 e8       	ldi	r22, 0x88	; 136
    4f90:	75 ef       	ldi	r23, 0xF5	; 245
    4f92:	84 e0       	ldi	r24, 0x04	; 4
    4f94:	90 e0       	ldi	r25, 0x00	; 0
    4f96:	0e 94 4c 2c 	call	0x5898	; 0x5898 <__udivmodsi4>
    4f9a:	20 93 ac 02 	sts	0x02AC, r18
    4f9e:	30 93 ad 02 	sts	0x02AD, r19
    4fa2:	40 93 ae 02 	sts	0x02AE, r20
    4fa6:	50 93 af 02 	sts	0x02AF, r21
    4faa:	e9 81       	ldd	r30, Y+1	; 0x01
    4fac:	fa 81       	ldd	r31, Y+2	; 0x02
    4fae:	31 96       	adiw	r30, 0x01	; 1
    4fb0:	f0 93 72 03 	sts	0x0372, r31
    4fb4:	e0 93 71 03 	sts	0x0371, r30
    4fb8:	12 c3       	rjmp	.+1572   	; 0x55de <main+0x25b6>
    4fba:	c9 01       	movw	r24, r18
    4fbc:	01 96       	adiw	r24, 0x01	; 1
    4fbe:	90 93 72 03 	sts	0x0372, r25
    4fc2:	80 93 71 03 	sts	0x0371, r24
    4fc6:	d9 01       	movw	r26, r18
    4fc8:	11 96       	adiw	r26, 0x01	; 1
    4fca:	2c 91       	ld	r18, X
    4fcc:	20 93 ab 02 	sts	0x02AB, r18
    4fd0:	cf c2       	rjmp	.+1438   	; 0x5570 <main+0x2548>
    4fd2:	f9 01       	movw	r30, r18
    4fd4:	31 96       	adiw	r30, 0x01	; 1
    4fd6:	f0 93 72 03 	sts	0x0372, r31
    4fda:	e0 93 71 03 	sts	0x0371, r30
    4fde:	d9 01       	movw	r26, r18
    4fe0:	11 96       	adiw	r26, 0x01	; 1
    4fe2:	8c 91       	ld	r24, X
    4fe4:	80 93 69 03 	sts	0x0369, r24
    4fe8:	10 92 6a 03 	sts	0x036A, r1
    4fec:	31 96       	adiw	r30, 0x01	; 1
    4fee:	f0 93 72 03 	sts	0x0372, r31
    4ff2:	e0 93 71 03 	sts	0x0371, r30
    4ff6:	31 97       	sbiw	r30, 0x01	; 1
    4ff8:	81 81       	ldd	r24, Z+1	; 0x01
    4ffa:	86 34       	cpi	r24, 0x46	; 70
    4ffc:	09 f4       	brne	.+2      	; 0x5000 <main+0x1fd8>
    4ffe:	68 c0       	rjmp	.+208    	; 0x50d0 <main+0x20a8>
    5000:	87 34       	cpi	r24, 0x47	; 71
    5002:	88 f4       	brcc	.+34     	; 0x5026 <main+0x1ffe>
    5004:	83 34       	cpi	r24, 0x43	; 67
    5006:	11 f1       	breq	.+68     	; 0x504c <main+0x2024>
    5008:	84 34       	cpi	r24, 0x44	; 68
    500a:	38 f4       	brcc	.+14     	; 0x501a <main+0x1ff2>
    500c:	81 34       	cpi	r24, 0x41	; 65
    500e:	09 f4       	brne	.+2      	; 0x5012 <main+0x1fea>
    5010:	8b c0       	rjmp	.+278    	; 0x5128 <main+0x2100>
    5012:	82 34       	cpi	r24, 0x42	; 66
    5014:	09 f0       	breq	.+2      	; 0x5018 <main+0x1ff0>
    5016:	04 c1       	rjmp	.+520    	; 0x5220 <main+0x21f8>
    5018:	99 c0       	rjmp	.+306    	; 0x514c <main+0x2124>
    501a:	84 34       	cpi	r24, 0x44	; 68
    501c:	69 f1       	breq	.+90     	; 0x5078 <main+0x2050>
    501e:	85 34       	cpi	r24, 0x45	; 69
    5020:	09 f0       	breq	.+2      	; 0x5024 <main+0x1ffc>
    5022:	fe c0       	rjmp	.+508    	; 0x5220 <main+0x21f8>
    5024:	3f c0       	rjmp	.+126    	; 0x50a4 <main+0x207c>
    5026:	89 34       	cpi	r24, 0x49	; 73
    5028:	09 f4       	brne	.+2      	; 0x502c <main+0x2004>
    502a:	b8 c0       	rjmp	.+368    	; 0x519c <main+0x2174>
    502c:	8a 34       	cpi	r24, 0x4A	; 74
    502e:	38 f4       	brcc	.+14     	; 0x503e <main+0x2016>
    5030:	87 34       	cpi	r24, 0x47	; 71
    5032:	09 f4       	brne	.+2      	; 0x5036 <main+0x200e>
    5034:	63 c0       	rjmp	.+198    	; 0x50fc <main+0x20d4>
    5036:	88 34       	cpi	r24, 0x48	; 72
    5038:	09 f0       	breq	.+2      	; 0x503c <main+0x2014>
    503a:	f2 c0       	rjmp	.+484    	; 0x5220 <main+0x21f8>
    503c:	99 c0       	rjmp	.+306    	; 0x5170 <main+0x2148>
    503e:	8a 34       	cpi	r24, 0x4A	; 74
    5040:	09 f4       	brne	.+2      	; 0x5044 <main+0x201c>
    5042:	c2 c0       	rjmp	.+388    	; 0x51c8 <main+0x21a0>
    5044:	8b 34       	cpi	r24, 0x4B	; 75
    5046:	09 f0       	breq	.+2      	; 0x504a <main+0x2022>
    5048:	eb c0       	rjmp	.+470    	; 0x5220 <main+0x21f8>
    504a:	d4 c0       	rjmp	.+424    	; 0x51f4 <main+0x21cc>
    504c:	80 91 69 03 	lds	r24, 0x0369
    5050:	90 91 6a 03 	lds	r25, 0x036A
    5054:	85 30       	cpi	r24, 0x05	; 5
    5056:	91 05       	cpc	r25, r1
    5058:	30 f0       	brcs	.+12     	; 0x5066 <main+0x203e>
    505a:	04 97       	sbiw	r24, 0x04	; 4
    505c:	26 ec       	ldi	r18, 0xC6	; 198
    505e:	3d e0       	ldi	r19, 0x0D	; 13
    5060:	40 e0       	ldi	r20, 0x00	; 0
    5062:	50 e0       	ldi	r21, 0x00	; 0
    5064:	e9 c0       	rjmp	.+466    	; 0x5238 <main+0x2210>
    5066:	a7 01       	movw	r20, r14
    5068:	48 1b       	sub	r20, r24
    506a:	59 0b       	sbc	r21, r25
    506c:	ca 01       	movw	r24, r20
    506e:	26 ec       	ldi	r18, 0xC6	; 198
    5070:	3d e0       	ldi	r19, 0x0D	; 13
    5072:	40 e0       	ldi	r20, 0x00	; 0
    5074:	50 e0       	ldi	r21, 0x00	; 0
    5076:	f0 c0       	rjmp	.+480    	; 0x5258 <main+0x2230>
    5078:	80 91 69 03 	lds	r24, 0x0369
    507c:	90 91 6a 03 	lds	r25, 0x036A
    5080:	85 30       	cpi	r24, 0x05	; 5
    5082:	91 05       	cpc	r25, r1
    5084:	30 f0       	brcs	.+12     	; 0x5092 <main+0x206a>
    5086:	04 97       	sbiw	r24, 0x04	; 4
    5088:	23 e5       	ldi	r18, 0x53	; 83
    508a:	3c e0       	ldi	r19, 0x0C	; 12
    508c:	40 e0       	ldi	r20, 0x00	; 0
    508e:	50 e0       	ldi	r21, 0x00	; 0
    5090:	d3 c0       	rjmp	.+422    	; 0x5238 <main+0x2210>
    5092:	a7 01       	movw	r20, r14
    5094:	48 1b       	sub	r20, r24
    5096:	59 0b       	sbc	r21, r25
    5098:	ca 01       	movw	r24, r20
    509a:	23 e5       	ldi	r18, 0x53	; 83
    509c:	3c e0       	ldi	r19, 0x0C	; 12
    509e:	40 e0       	ldi	r20, 0x00	; 0
    50a0:	50 e0       	ldi	r21, 0x00	; 0
    50a2:	da c0       	rjmp	.+436    	; 0x5258 <main+0x2230>
    50a4:	80 91 69 03 	lds	r24, 0x0369
    50a8:	90 91 6a 03 	lds	r25, 0x036A
    50ac:	85 30       	cpi	r24, 0x05	; 5
    50ae:	91 05       	cpc	r25, r1
    50b0:	30 f0       	brcs	.+12     	; 0x50be <main+0x2096>
    50b2:	04 97       	sbiw	r24, 0x04	; 4
    50b4:	2e ee       	ldi	r18, 0xEE	; 238
    50b6:	3a e0       	ldi	r19, 0x0A	; 10
    50b8:	40 e0       	ldi	r20, 0x00	; 0
    50ba:	50 e0       	ldi	r21, 0x00	; 0
    50bc:	bd c0       	rjmp	.+378    	; 0x5238 <main+0x2210>
    50be:	a7 01       	movw	r20, r14
    50c0:	48 1b       	sub	r20, r24
    50c2:	59 0b       	sbc	r21, r25
    50c4:	ca 01       	movw	r24, r20
    50c6:	2e ee       	ldi	r18, 0xEE	; 238
    50c8:	3a e0       	ldi	r19, 0x0A	; 10
    50ca:	40 e0       	ldi	r20, 0x00	; 0
    50cc:	50 e0       	ldi	r21, 0x00	; 0
    50ce:	c4 c0       	rjmp	.+392    	; 0x5258 <main+0x2230>
    50d0:	80 91 69 03 	lds	r24, 0x0369
    50d4:	90 91 6a 03 	lds	r25, 0x036A
    50d8:	85 30       	cpi	r24, 0x05	; 5
    50da:	91 05       	cpc	r25, r1
    50dc:	30 f0       	brcs	.+12     	; 0x50ea <main+0x20c2>
    50de:	04 97       	sbiw	r24, 0x04	; 4
    50e0:	2f e4       	ldi	r18, 0x4F	; 79
    50e2:	3a e0       	ldi	r19, 0x0A	; 10
    50e4:	40 e0       	ldi	r20, 0x00	; 0
    50e6:	50 e0       	ldi	r21, 0x00	; 0
    50e8:	a7 c0       	rjmp	.+334    	; 0x5238 <main+0x2210>
    50ea:	a7 01       	movw	r20, r14
    50ec:	48 1b       	sub	r20, r24
    50ee:	59 0b       	sbc	r21, r25
    50f0:	ca 01       	movw	r24, r20
    50f2:	2f e4       	ldi	r18, 0x4F	; 79
    50f4:	3a e0       	ldi	r19, 0x0A	; 10
    50f6:	40 e0       	ldi	r20, 0x00	; 0
    50f8:	50 e0       	ldi	r21, 0x00	; 0
    50fa:	ae c0       	rjmp	.+348    	; 0x5258 <main+0x2230>
    50fc:	80 91 69 03 	lds	r24, 0x0369
    5100:	90 91 6a 03 	lds	r25, 0x036A
    5104:	85 30       	cpi	r24, 0x05	; 5
    5106:	91 05       	cpc	r25, r1
    5108:	30 f0       	brcs	.+12     	; 0x5116 <main+0x20ee>
    510a:	04 97       	sbiw	r24, 0x04	; 4
    510c:	25 e3       	ldi	r18, 0x35	; 53
    510e:	39 e0       	ldi	r19, 0x09	; 9
    5110:	40 e0       	ldi	r20, 0x00	; 0
    5112:	50 e0       	ldi	r21, 0x00	; 0
    5114:	91 c0       	rjmp	.+290    	; 0x5238 <main+0x2210>
    5116:	a7 01       	movw	r20, r14
    5118:	48 1b       	sub	r20, r24
    511a:	59 0b       	sbc	r21, r25
    511c:	ca 01       	movw	r24, r20
    511e:	25 e3       	ldi	r18, 0x35	; 53
    5120:	39 e0       	ldi	r19, 0x09	; 9
    5122:	40 e0       	ldi	r20, 0x00	; 0
    5124:	50 e0       	ldi	r21, 0x00	; 0
    5126:	98 c0       	rjmp	.+304    	; 0x5258 <main+0x2230>
    5128:	80 91 69 03 	lds	r24, 0x0369
    512c:	90 91 6a 03 	lds	r25, 0x036A
    5130:	85 30       	cpi	r24, 0x05	; 5
    5132:	91 05       	cpc	r25, r1
    5134:	20 f0       	brcs	.+8      	; 0x513e <main+0x2116>
    5136:	04 97       	sbiw	r24, 0x04	; 4
    5138:	a2 01       	movw	r20, r4
    513a:	91 01       	movw	r18, r2
    513c:	7d c0       	rjmp	.+250    	; 0x5238 <main+0x2210>
    513e:	a7 01       	movw	r20, r14
    5140:	48 1b       	sub	r20, r24
    5142:	59 0b       	sbc	r21, r25
    5144:	ca 01       	movw	r24, r20
    5146:	a2 01       	movw	r20, r4
    5148:	91 01       	movw	r18, r2
    514a:	86 c0       	rjmp	.+268    	; 0x5258 <main+0x2230>
    514c:	80 91 69 03 	lds	r24, 0x0369
    5150:	90 91 6a 03 	lds	r25, 0x036A
    5154:	85 30       	cpi	r24, 0x05	; 5
    5156:	91 05       	cpc	r25, r1
    5158:	20 f0       	brcs	.+8      	; 0x5162 <main+0x213a>
    515a:	04 97       	sbiw	r24, 0x04	; 4
    515c:	a4 01       	movw	r20, r8
    515e:	93 01       	movw	r18, r6
    5160:	6b c0       	rjmp	.+214    	; 0x5238 <main+0x2210>
    5162:	a7 01       	movw	r20, r14
    5164:	48 1b       	sub	r20, r24
    5166:	59 0b       	sbc	r21, r25
    5168:	ca 01       	movw	r24, r20
    516a:	a4 01       	movw	r20, r8
    516c:	93 01       	movw	r18, r6
    516e:	74 c0       	rjmp	.+232    	; 0x5258 <main+0x2230>
    5170:	80 91 69 03 	lds	r24, 0x0369
    5174:	90 91 6a 03 	lds	r25, 0x036A
    5178:	85 30       	cpi	r24, 0x05	; 5
    517a:	91 05       	cpc	r25, r1
    517c:	30 f0       	brcs	.+12     	; 0x518a <main+0x2162>
    517e:	04 97       	sbiw	r24, 0x04	; 4
    5180:	22 e0       	ldi	r18, 0x02	; 2
    5182:	3d e0       	ldi	r19, 0x0D	; 13
    5184:	40 e0       	ldi	r20, 0x00	; 0
    5186:	50 e0       	ldi	r21, 0x00	; 0
    5188:	57 c0       	rjmp	.+174    	; 0x5238 <main+0x2210>
    518a:	a7 01       	movw	r20, r14
    518c:	48 1b       	sub	r20, r24
    518e:	59 0b       	sbc	r21, r25
    5190:	ca 01       	movw	r24, r20
    5192:	22 e0       	ldi	r18, 0x02	; 2
    5194:	3d e0       	ldi	r19, 0x0D	; 13
    5196:	40 e0       	ldi	r20, 0x00	; 0
    5198:	50 e0       	ldi	r21, 0x00	; 0
    519a:	5e c0       	rjmp	.+188    	; 0x5258 <main+0x2230>
    519c:	80 91 69 03 	lds	r24, 0x0369
    51a0:	90 91 6a 03 	lds	r25, 0x036A
    51a4:	85 30       	cpi	r24, 0x05	; 5
    51a6:	91 05       	cpc	r25, r1
    51a8:	30 f0       	brcs	.+12     	; 0x51b6 <main+0x218e>
    51aa:	04 97       	sbiw	r24, 0x04	; 4
    51ac:	20 ea       	ldi	r18, 0xA0	; 160
    51ae:	3b e0       	ldi	r19, 0x0B	; 11
    51b0:	40 e0       	ldi	r20, 0x00	; 0
    51b2:	50 e0       	ldi	r21, 0x00	; 0
    51b4:	41 c0       	rjmp	.+130    	; 0x5238 <main+0x2210>
    51b6:	a7 01       	movw	r20, r14
    51b8:	48 1b       	sub	r20, r24
    51ba:	59 0b       	sbc	r21, r25
    51bc:	ca 01       	movw	r24, r20
    51be:	20 ea       	ldi	r18, 0xA0	; 160
    51c0:	3b e0       	ldi	r19, 0x0B	; 11
    51c2:	40 e0       	ldi	r20, 0x00	; 0
    51c4:	50 e0       	ldi	r21, 0x00	; 0
    51c6:	48 c0       	rjmp	.+144    	; 0x5258 <main+0x2230>
    51c8:	80 91 69 03 	lds	r24, 0x0369
    51cc:	90 91 6a 03 	lds	r25, 0x036A
    51d0:	85 30       	cpi	r24, 0x05	; 5
    51d2:	91 05       	cpc	r25, r1
    51d4:	30 f0       	brcs	.+12     	; 0x51e2 <main+0x21ba>
    51d6:	04 97       	sbiw	r24, 0x04	; 4
    51d8:	22 ec       	ldi	r18, 0xC2	; 194
    51da:	39 e0       	ldi	r19, 0x09	; 9
    51dc:	40 e0       	ldi	r20, 0x00	; 0
    51de:	50 e0       	ldi	r21, 0x00	; 0
    51e0:	2b c0       	rjmp	.+86     	; 0x5238 <main+0x2210>
    51e2:	a7 01       	movw	r20, r14
    51e4:	48 1b       	sub	r20, r24
    51e6:	59 0b       	sbc	r21, r25
    51e8:	ca 01       	movw	r24, r20
    51ea:	22 ec       	ldi	r18, 0xC2	; 194
    51ec:	39 e0       	ldi	r19, 0x09	; 9
    51ee:	40 e0       	ldi	r20, 0x00	; 0
    51f0:	50 e0       	ldi	r21, 0x00	; 0
    51f2:	32 c0       	rjmp	.+100    	; 0x5258 <main+0x2230>
    51f4:	80 91 69 03 	lds	r24, 0x0369
    51f8:	90 91 6a 03 	lds	r25, 0x036A
    51fc:	85 30       	cpi	r24, 0x05	; 5
    51fe:	91 05       	cpc	r25, r1
    5200:	30 f0       	brcs	.+12     	; 0x520e <main+0x21e6>
    5202:	04 97       	sbiw	r24, 0x04	; 4
    5204:	2c ea       	ldi	r18, 0xAC	; 172
    5206:	38 e0       	ldi	r19, 0x08	; 8
    5208:	40 e0       	ldi	r20, 0x00	; 0
    520a:	50 e0       	ldi	r21, 0x00	; 0
    520c:	15 c0       	rjmp	.+42     	; 0x5238 <main+0x2210>
    520e:	a7 01       	movw	r20, r14
    5210:	48 1b       	sub	r20, r24
    5212:	59 0b       	sbc	r21, r25
    5214:	ca 01       	movw	r24, r20
    5216:	2c ea       	ldi	r18, 0xAC	; 172
    5218:	38 e0       	ldi	r19, 0x08	; 8
    521a:	40 e0       	ldi	r20, 0x00	; 0
    521c:	50 e0       	ldi	r21, 0x00	; 0
    521e:	1c c0       	rjmp	.+56     	; 0x5258 <main+0x2230>
    5220:	80 91 69 03 	lds	r24, 0x0369
    5224:	90 91 6a 03 	lds	r25, 0x036A
    5228:	85 30       	cpi	r24, 0x05	; 5
    522a:	91 05       	cpc	r25, r1
    522c:	68 f0       	brcs	.+26     	; 0x5248 <main+0x2220>
    522e:	04 97       	sbiw	r24, 0x04	; 4
    5230:	2b eb       	ldi	r18, 0xBB	; 187
    5232:	37 e0       	ldi	r19, 0x07	; 7
    5234:	40 e0       	ldi	r20, 0x00	; 0
    5236:	50 e0       	ldi	r21, 0x00	; 0
    5238:	04 c0       	rjmp	.+8      	; 0x5242 <main+0x221a>
    523a:	56 95       	lsr	r21
    523c:	47 95       	ror	r20
    523e:	37 95       	ror	r19
    5240:	27 95       	ror	r18
    5242:	8a 95       	dec	r24
    5244:	d2 f7       	brpl	.-12     	; 0x523a <main+0x2212>
    5246:	0f c0       	rjmp	.+30     	; 0x5266 <main+0x223e>
    5248:	a7 01       	movw	r20, r14
    524a:	48 1b       	sub	r20, r24
    524c:	59 0b       	sbc	r21, r25
    524e:	ca 01       	movw	r24, r20
    5250:	2b eb       	ldi	r18, 0xBB	; 187
    5252:	37 e0       	ldi	r19, 0x07	; 7
    5254:	40 e0       	ldi	r20, 0x00	; 0
    5256:	50 e0       	ldi	r21, 0x00	; 0
    5258:	04 c0       	rjmp	.+8      	; 0x5262 <main+0x223a>
    525a:	22 0f       	add	r18, r18
    525c:	33 1f       	adc	r19, r19
    525e:	44 1f       	adc	r20, r20
    5260:	55 1f       	adc	r21, r21
    5262:	8a 95       	dec	r24
    5264:	d2 f7       	brpl	.-12     	; 0x525a <main+0x2232>
    5266:	30 93 63 03 	sts	0x0363, r19
    526a:	20 93 62 03 	sts	0x0362, r18
    526e:	e0 91 71 03 	lds	r30, 0x0371
    5272:	f0 91 72 03 	lds	r31, 0x0372
    5276:	df 01       	movw	r26, r30
    5278:	11 96       	adiw	r26, 0x01	; 1
    527a:	b0 93 72 03 	sts	0x0372, r27
    527e:	a0 93 71 03 	sts	0x0371, r26
    5282:	81 81       	ldd	r24, Z+1	; 0x01
    5284:	80 93 69 03 	sts	0x0369, r24
    5288:	10 92 6a 03 	sts	0x036A, r1
    528c:	11 96       	adiw	r26, 0x01	; 1
    528e:	b0 93 72 03 	sts	0x0372, r27
    5292:	a0 93 71 03 	sts	0x0371, r26
    5296:	11 97       	sbiw	r26, 0x01	; 1
    5298:	11 96       	adiw	r26, 0x01	; 1
    529a:	8c 91       	ld	r24, X
    529c:	86 34       	cpi	r24, 0x46	; 70
    529e:	09 f4       	brne	.+2      	; 0x52a2 <main+0x227a>
    52a0:	68 c0       	rjmp	.+208    	; 0x5372 <main+0x234a>
    52a2:	87 34       	cpi	r24, 0x47	; 71
    52a4:	88 f4       	brcc	.+34     	; 0x52c8 <main+0x22a0>
    52a6:	83 34       	cpi	r24, 0x43	; 67
    52a8:	11 f1       	breq	.+68     	; 0x52ee <main+0x22c6>
    52aa:	84 34       	cpi	r24, 0x44	; 68
    52ac:	38 f4       	brcc	.+14     	; 0x52bc <main+0x2294>
    52ae:	81 34       	cpi	r24, 0x41	; 65
    52b0:	09 f4       	brne	.+2      	; 0x52b4 <main+0x228c>
    52b2:	8b c0       	rjmp	.+278    	; 0x53ca <main+0x23a2>
    52b4:	82 34       	cpi	r24, 0x42	; 66
    52b6:	09 f0       	breq	.+2      	; 0x52ba <main+0x2292>
    52b8:	04 c1       	rjmp	.+520    	; 0x54c2 <main+0x249a>
    52ba:	99 c0       	rjmp	.+306    	; 0x53ee <main+0x23c6>
    52bc:	84 34       	cpi	r24, 0x44	; 68
    52be:	69 f1       	breq	.+90     	; 0x531a <main+0x22f2>
    52c0:	85 34       	cpi	r24, 0x45	; 69
    52c2:	09 f0       	breq	.+2      	; 0x52c6 <main+0x229e>
    52c4:	fe c0       	rjmp	.+508    	; 0x54c2 <main+0x249a>
    52c6:	3f c0       	rjmp	.+126    	; 0x5346 <main+0x231e>
    52c8:	89 34       	cpi	r24, 0x49	; 73
    52ca:	09 f4       	brne	.+2      	; 0x52ce <main+0x22a6>
    52cc:	b8 c0       	rjmp	.+368    	; 0x543e <main+0x2416>
    52ce:	8a 34       	cpi	r24, 0x4A	; 74
    52d0:	38 f4       	brcc	.+14     	; 0x52e0 <main+0x22b8>
    52d2:	87 34       	cpi	r24, 0x47	; 71
    52d4:	09 f4       	brne	.+2      	; 0x52d8 <main+0x22b0>
    52d6:	63 c0       	rjmp	.+198    	; 0x539e <main+0x2376>
    52d8:	88 34       	cpi	r24, 0x48	; 72
    52da:	09 f0       	breq	.+2      	; 0x52de <main+0x22b6>
    52dc:	f2 c0       	rjmp	.+484    	; 0x54c2 <main+0x249a>
    52de:	99 c0       	rjmp	.+306    	; 0x5412 <main+0x23ea>
    52e0:	8a 34       	cpi	r24, 0x4A	; 74
    52e2:	09 f4       	brne	.+2      	; 0x52e6 <main+0x22be>
    52e4:	c2 c0       	rjmp	.+388    	; 0x546a <main+0x2442>
    52e6:	8b 34       	cpi	r24, 0x4B	; 75
    52e8:	09 f0       	breq	.+2      	; 0x52ec <main+0x22c4>
    52ea:	eb c0       	rjmp	.+470    	; 0x54c2 <main+0x249a>
    52ec:	d4 c0       	rjmp	.+424    	; 0x5496 <main+0x246e>
    52ee:	80 91 69 03 	lds	r24, 0x0369
    52f2:	90 91 6a 03 	lds	r25, 0x036A
    52f6:	85 30       	cpi	r24, 0x05	; 5
    52f8:	91 05       	cpc	r25, r1
    52fa:	30 f0       	brcs	.+12     	; 0x5308 <main+0x22e0>
    52fc:	04 97       	sbiw	r24, 0x04	; 4
    52fe:	26 ec       	ldi	r18, 0xC6	; 198
    5300:	3d e0       	ldi	r19, 0x0D	; 13
    5302:	40 e0       	ldi	r20, 0x00	; 0
    5304:	50 e0       	ldi	r21, 0x00	; 0
    5306:	e9 c0       	rjmp	.+466    	; 0x54da <main+0x24b2>
    5308:	a7 01       	movw	r20, r14
    530a:	48 1b       	sub	r20, r24
    530c:	59 0b       	sbc	r21, r25
    530e:	ca 01       	movw	r24, r20
    5310:	26 ec       	ldi	r18, 0xC6	; 198
    5312:	3d e0       	ldi	r19, 0x0D	; 13
    5314:	40 e0       	ldi	r20, 0x00	; 0
    5316:	50 e0       	ldi	r21, 0x00	; 0
    5318:	f0 c0       	rjmp	.+480    	; 0x54fa <main+0x24d2>
    531a:	80 91 69 03 	lds	r24, 0x0369
    531e:	90 91 6a 03 	lds	r25, 0x036A
    5322:	85 30       	cpi	r24, 0x05	; 5
    5324:	91 05       	cpc	r25, r1
    5326:	30 f0       	brcs	.+12     	; 0x5334 <main+0x230c>
    5328:	04 97       	sbiw	r24, 0x04	; 4
    532a:	23 e5       	ldi	r18, 0x53	; 83
    532c:	3c e0       	ldi	r19, 0x0C	; 12
    532e:	40 e0       	ldi	r20, 0x00	; 0
    5330:	50 e0       	ldi	r21, 0x00	; 0
    5332:	d3 c0       	rjmp	.+422    	; 0x54da <main+0x24b2>
    5334:	a7 01       	movw	r20, r14
    5336:	48 1b       	sub	r20, r24
    5338:	59 0b       	sbc	r21, r25
    533a:	ca 01       	movw	r24, r20
    533c:	23 e5       	ldi	r18, 0x53	; 83
    533e:	3c e0       	ldi	r19, 0x0C	; 12
    5340:	40 e0       	ldi	r20, 0x00	; 0
    5342:	50 e0       	ldi	r21, 0x00	; 0
    5344:	da c0       	rjmp	.+436    	; 0x54fa <main+0x24d2>
    5346:	80 91 69 03 	lds	r24, 0x0369
    534a:	90 91 6a 03 	lds	r25, 0x036A
    534e:	85 30       	cpi	r24, 0x05	; 5
    5350:	91 05       	cpc	r25, r1
    5352:	30 f0       	brcs	.+12     	; 0x5360 <main+0x2338>
    5354:	04 97       	sbiw	r24, 0x04	; 4
    5356:	2e ee       	ldi	r18, 0xEE	; 238
    5358:	3a e0       	ldi	r19, 0x0A	; 10
    535a:	40 e0       	ldi	r20, 0x00	; 0
    535c:	50 e0       	ldi	r21, 0x00	; 0
    535e:	bd c0       	rjmp	.+378    	; 0x54da <main+0x24b2>
    5360:	a7 01       	movw	r20, r14
    5362:	48 1b       	sub	r20, r24
    5364:	59 0b       	sbc	r21, r25
    5366:	ca 01       	movw	r24, r20
    5368:	2e ee       	ldi	r18, 0xEE	; 238
    536a:	3a e0       	ldi	r19, 0x0A	; 10
    536c:	40 e0       	ldi	r20, 0x00	; 0
    536e:	50 e0       	ldi	r21, 0x00	; 0
    5370:	c4 c0       	rjmp	.+392    	; 0x54fa <main+0x24d2>
    5372:	80 91 69 03 	lds	r24, 0x0369
    5376:	90 91 6a 03 	lds	r25, 0x036A
    537a:	85 30       	cpi	r24, 0x05	; 5
    537c:	91 05       	cpc	r25, r1
    537e:	30 f0       	brcs	.+12     	; 0x538c <main+0x2364>
    5380:	04 97       	sbiw	r24, 0x04	; 4
    5382:	2f e4       	ldi	r18, 0x4F	; 79
    5384:	3a e0       	ldi	r19, 0x0A	; 10
    5386:	40 e0       	ldi	r20, 0x00	; 0
    5388:	50 e0       	ldi	r21, 0x00	; 0
    538a:	a7 c0       	rjmp	.+334    	; 0x54da <main+0x24b2>
    538c:	a7 01       	movw	r20, r14
    538e:	48 1b       	sub	r20, r24
    5390:	59 0b       	sbc	r21, r25
    5392:	ca 01       	movw	r24, r20
    5394:	2f e4       	ldi	r18, 0x4F	; 79
    5396:	3a e0       	ldi	r19, 0x0A	; 10
    5398:	40 e0       	ldi	r20, 0x00	; 0
    539a:	50 e0       	ldi	r21, 0x00	; 0
    539c:	ae c0       	rjmp	.+348    	; 0x54fa <main+0x24d2>
    539e:	80 91 69 03 	lds	r24, 0x0369
    53a2:	90 91 6a 03 	lds	r25, 0x036A
    53a6:	85 30       	cpi	r24, 0x05	; 5
    53a8:	91 05       	cpc	r25, r1
    53aa:	30 f0       	brcs	.+12     	; 0x53b8 <main+0x2390>
    53ac:	04 97       	sbiw	r24, 0x04	; 4
    53ae:	25 e3       	ldi	r18, 0x35	; 53
    53b0:	39 e0       	ldi	r19, 0x09	; 9
    53b2:	40 e0       	ldi	r20, 0x00	; 0
    53b4:	50 e0       	ldi	r21, 0x00	; 0
    53b6:	91 c0       	rjmp	.+290    	; 0x54da <main+0x24b2>
    53b8:	a7 01       	movw	r20, r14
    53ba:	48 1b       	sub	r20, r24
    53bc:	59 0b       	sbc	r21, r25
    53be:	ca 01       	movw	r24, r20
    53c0:	25 e3       	ldi	r18, 0x35	; 53
    53c2:	39 e0       	ldi	r19, 0x09	; 9
    53c4:	40 e0       	ldi	r20, 0x00	; 0
    53c6:	50 e0       	ldi	r21, 0x00	; 0
    53c8:	98 c0       	rjmp	.+304    	; 0x54fa <main+0x24d2>
    53ca:	80 91 69 03 	lds	r24, 0x0369
    53ce:	90 91 6a 03 	lds	r25, 0x036A
    53d2:	85 30       	cpi	r24, 0x05	; 5
    53d4:	91 05       	cpc	r25, r1
    53d6:	20 f0       	brcs	.+8      	; 0x53e0 <main+0x23b8>
    53d8:	04 97       	sbiw	r24, 0x04	; 4
    53da:	a2 01       	movw	r20, r4
    53dc:	91 01       	movw	r18, r2
    53de:	7d c0       	rjmp	.+250    	; 0x54da <main+0x24b2>
    53e0:	a7 01       	movw	r20, r14
    53e2:	48 1b       	sub	r20, r24
    53e4:	59 0b       	sbc	r21, r25
    53e6:	ca 01       	movw	r24, r20
    53e8:	a2 01       	movw	r20, r4
    53ea:	91 01       	movw	r18, r2
    53ec:	86 c0       	rjmp	.+268    	; 0x54fa <main+0x24d2>
    53ee:	80 91 69 03 	lds	r24, 0x0369
    53f2:	90 91 6a 03 	lds	r25, 0x036A
    53f6:	85 30       	cpi	r24, 0x05	; 5
    53f8:	91 05       	cpc	r25, r1
    53fa:	20 f0       	brcs	.+8      	; 0x5404 <main+0x23dc>
    53fc:	04 97       	sbiw	r24, 0x04	; 4
    53fe:	a4 01       	movw	r20, r8
    5400:	93 01       	movw	r18, r6
    5402:	6b c0       	rjmp	.+214    	; 0x54da <main+0x24b2>
    5404:	a7 01       	movw	r20, r14
    5406:	48 1b       	sub	r20, r24
    5408:	59 0b       	sbc	r21, r25
    540a:	ca 01       	movw	r24, r20
    540c:	a4 01       	movw	r20, r8
    540e:	93 01       	movw	r18, r6
    5410:	74 c0       	rjmp	.+232    	; 0x54fa <main+0x24d2>
    5412:	80 91 69 03 	lds	r24, 0x0369
    5416:	90 91 6a 03 	lds	r25, 0x036A
    541a:	85 30       	cpi	r24, 0x05	; 5
    541c:	91 05       	cpc	r25, r1
    541e:	30 f0       	brcs	.+12     	; 0x542c <main+0x2404>
    5420:	04 97       	sbiw	r24, 0x04	; 4
    5422:	22 e0       	ldi	r18, 0x02	; 2
    5424:	3d e0       	ldi	r19, 0x0D	; 13
    5426:	40 e0       	ldi	r20, 0x00	; 0
    5428:	50 e0       	ldi	r21, 0x00	; 0
    542a:	57 c0       	rjmp	.+174    	; 0x54da <main+0x24b2>
    542c:	a7 01       	movw	r20, r14
    542e:	48 1b       	sub	r20, r24
    5430:	59 0b       	sbc	r21, r25
    5432:	ca 01       	movw	r24, r20
    5434:	22 e0       	ldi	r18, 0x02	; 2
    5436:	3d e0       	ldi	r19, 0x0D	; 13
    5438:	40 e0       	ldi	r20, 0x00	; 0
    543a:	50 e0       	ldi	r21, 0x00	; 0
    543c:	5e c0       	rjmp	.+188    	; 0x54fa <main+0x24d2>
    543e:	80 91 69 03 	lds	r24, 0x0369
    5442:	90 91 6a 03 	lds	r25, 0x036A
    5446:	85 30       	cpi	r24, 0x05	; 5
    5448:	91 05       	cpc	r25, r1
    544a:	30 f0       	brcs	.+12     	; 0x5458 <main+0x2430>
    544c:	04 97       	sbiw	r24, 0x04	; 4
    544e:	20 ea       	ldi	r18, 0xA0	; 160
    5450:	3b e0       	ldi	r19, 0x0B	; 11
    5452:	40 e0       	ldi	r20, 0x00	; 0
    5454:	50 e0       	ldi	r21, 0x00	; 0
    5456:	41 c0       	rjmp	.+130    	; 0x54da <main+0x24b2>
    5458:	a7 01       	movw	r20, r14
    545a:	48 1b       	sub	r20, r24
    545c:	59 0b       	sbc	r21, r25
    545e:	ca 01       	movw	r24, r20
    5460:	20 ea       	ldi	r18, 0xA0	; 160
    5462:	3b e0       	ldi	r19, 0x0B	; 11
    5464:	40 e0       	ldi	r20, 0x00	; 0
    5466:	50 e0       	ldi	r21, 0x00	; 0
    5468:	48 c0       	rjmp	.+144    	; 0x54fa <main+0x24d2>
    546a:	80 91 69 03 	lds	r24, 0x0369
    546e:	90 91 6a 03 	lds	r25, 0x036A
    5472:	85 30       	cpi	r24, 0x05	; 5
    5474:	91 05       	cpc	r25, r1
    5476:	30 f0       	brcs	.+12     	; 0x5484 <main+0x245c>
    5478:	04 97       	sbiw	r24, 0x04	; 4
    547a:	22 ec       	ldi	r18, 0xC2	; 194
    547c:	39 e0       	ldi	r19, 0x09	; 9
    547e:	40 e0       	ldi	r20, 0x00	; 0
    5480:	50 e0       	ldi	r21, 0x00	; 0
    5482:	2b c0       	rjmp	.+86     	; 0x54da <main+0x24b2>
    5484:	a7 01       	movw	r20, r14
    5486:	48 1b       	sub	r20, r24
    5488:	59 0b       	sbc	r21, r25
    548a:	ca 01       	movw	r24, r20
    548c:	22 ec       	ldi	r18, 0xC2	; 194
    548e:	39 e0       	ldi	r19, 0x09	; 9
    5490:	40 e0       	ldi	r20, 0x00	; 0
    5492:	50 e0       	ldi	r21, 0x00	; 0
    5494:	32 c0       	rjmp	.+100    	; 0x54fa <main+0x24d2>
    5496:	80 91 69 03 	lds	r24, 0x0369
    549a:	90 91 6a 03 	lds	r25, 0x036A
    549e:	85 30       	cpi	r24, 0x05	; 5
    54a0:	91 05       	cpc	r25, r1
    54a2:	30 f0       	brcs	.+12     	; 0x54b0 <main+0x2488>
    54a4:	04 97       	sbiw	r24, 0x04	; 4
    54a6:	2c ea       	ldi	r18, 0xAC	; 172
    54a8:	38 e0       	ldi	r19, 0x08	; 8
    54aa:	40 e0       	ldi	r20, 0x00	; 0
    54ac:	50 e0       	ldi	r21, 0x00	; 0
    54ae:	15 c0       	rjmp	.+42     	; 0x54da <main+0x24b2>
    54b0:	a7 01       	movw	r20, r14
    54b2:	48 1b       	sub	r20, r24
    54b4:	59 0b       	sbc	r21, r25
    54b6:	ca 01       	movw	r24, r20
    54b8:	2c ea       	ldi	r18, 0xAC	; 172
    54ba:	38 e0       	ldi	r19, 0x08	; 8
    54bc:	40 e0       	ldi	r20, 0x00	; 0
    54be:	50 e0       	ldi	r21, 0x00	; 0
    54c0:	1c c0       	rjmp	.+56     	; 0x54fa <main+0x24d2>
    54c2:	80 91 69 03 	lds	r24, 0x0369
    54c6:	90 91 6a 03 	lds	r25, 0x036A
    54ca:	85 30       	cpi	r24, 0x05	; 5
    54cc:	91 05       	cpc	r25, r1
    54ce:	68 f0       	brcs	.+26     	; 0x54ea <main+0x24c2>
    54d0:	04 97       	sbiw	r24, 0x04	; 4
    54d2:	2b eb       	ldi	r18, 0xBB	; 187
    54d4:	37 e0       	ldi	r19, 0x07	; 7
    54d6:	40 e0       	ldi	r20, 0x00	; 0
    54d8:	50 e0       	ldi	r21, 0x00	; 0
    54da:	04 c0       	rjmp	.+8      	; 0x54e4 <main+0x24bc>
    54dc:	56 95       	lsr	r21
    54de:	47 95       	ror	r20
    54e0:	37 95       	ror	r19
    54e2:	27 95       	ror	r18
    54e4:	8a 95       	dec	r24
    54e6:	d2 f7       	brpl	.-12     	; 0x54dc <main+0x24b4>
    54e8:	0f c0       	rjmp	.+30     	; 0x5508 <main+0x24e0>
    54ea:	a7 01       	movw	r20, r14
    54ec:	48 1b       	sub	r20, r24
    54ee:	59 0b       	sbc	r21, r25
    54f0:	ca 01       	movw	r24, r20
    54f2:	2b eb       	ldi	r18, 0xBB	; 187
    54f4:	37 e0       	ldi	r19, 0x07	; 7
    54f6:	40 e0       	ldi	r20, 0x00	; 0
    54f8:	50 e0       	ldi	r21, 0x00	; 0
    54fa:	04 c0       	rjmp	.+8      	; 0x5504 <main+0x24dc>
    54fc:	22 0f       	add	r18, r18
    54fe:	33 1f       	adc	r19, r19
    5500:	44 1f       	adc	r20, r20
    5502:	55 1f       	adc	r21, r21
    5504:	8a 95       	dec	r24
    5506:	d2 f7       	brpl	.-12     	; 0x54fc <main+0x24d4>
    5508:	30 93 66 03 	sts	0x0366, r19
    550c:	20 93 65 03 	sts	0x0365, r18
    5510:	e0 91 71 03 	lds	r30, 0x0371
    5514:	f0 91 72 03 	lds	r31, 0x0372
    5518:	cf 01       	movw	r24, r30
    551a:	01 96       	adiw	r24, 0x01	; 1
    551c:	90 93 72 03 	sts	0x0372, r25
    5520:	80 93 71 03 	sts	0x0371, r24
    5524:	21 81       	ldd	r18, Z+1	; 0x01
    5526:	20 93 69 03 	sts	0x0369, r18
    552a:	10 92 6a 03 	sts	0x036A, r1
    552e:	01 96       	adiw	r24, 0x01	; 1
    5530:	90 93 72 03 	sts	0x0372, r25
    5534:	80 93 71 03 	sts	0x0371, r24
    5538:	80 91 62 03 	lds	r24, 0x0362
    553c:	90 91 63 03 	lds	r25, 0x0363
    5540:	90 93 6c 03 	sts	0x036C, r25
    5544:	80 93 6b 03 	sts	0x036B, r24
    5548:	20 93 b0 02 	sts	0x02B0, r18
    554c:	48 c0       	rjmp	.+144    	; 0x55de <main+0x25b6>
    554e:	10 92 6c 03 	sts	0x036C, r1
    5552:	10 92 6b 03 	sts	0x036B, r1
    5556:	e0 91 71 03 	lds	r30, 0x0371
    555a:	f0 91 72 03 	lds	r31, 0x0372
    555e:	cf 01       	movw	r24, r30
    5560:	01 96       	adiw	r24, 0x01	; 1
    5562:	90 93 72 03 	sts	0x0372, r25
    5566:	80 93 71 03 	sts	0x0371, r24
    556a:	21 81       	ldd	r18, Z+1	; 0x01
    556c:	20 93 b0 02 	sts	0x02B0, r18
    5570:	01 96       	adiw	r24, 0x01	; 1
    5572:	21 c0       	rjmp	.+66     	; 0x55b6 <main+0x258e>
    5574:	c9 01       	movw	r24, r18
    5576:	01 96       	adiw	r24, 0x01	; 1
    5578:	90 93 72 03 	sts	0x0372, r25
    557c:	80 93 71 03 	sts	0x0371, r24
    5580:	90 93 68 03 	sts	0x0368, r25
    5584:	80 93 67 03 	sts	0x0367, r24
    5588:	2a c0       	rjmp	.+84     	; 0x55de <main+0x25b6>
    558a:	10 92 6c 03 	sts	0x036C, r1
    558e:	10 92 6b 03 	sts	0x036B, r1
    5592:	80 91 67 03 	lds	r24, 0x0367
    5596:	90 91 68 03 	lds	r25, 0x0368
    559a:	90 93 72 03 	sts	0x0372, r25
    559e:	80 93 71 03 	sts	0x0371, r24
    55a2:	31 e0       	ldi	r19, 0x01	; 1
    55a4:	30 93 b0 02 	sts	0x02B0, r19
    55a8:	10 92 64 03 	sts	0x0364, r1
    55ac:	18 c0       	rjmp	.+48     	; 0x55de <main+0x25b6>
    55ae:	80 91 67 03 	lds	r24, 0x0367
    55b2:	90 91 68 03 	lds	r25, 0x0368
    55b6:	90 93 72 03 	sts	0x0372, r25
    55ba:	80 93 71 03 	sts	0x0371, r24
    55be:	0f c0       	rjmp	.+30     	; 0x55de <main+0x25b6>
    55c0:	44 e0       	ldi	r20, 0x04	; 4
    55c2:	e4 2e       	mov	r14, r20
    55c4:	f1 2c       	mov	r15, r1
    55c6:	32 e3       	ldi	r19, 0x32	; 50
    55c8:	23 2e       	mov	r2, r19
    55ca:	38 e0       	ldi	r19, 0x08	; 8
    55cc:	33 2e       	mov	r3, r19
    55ce:	41 2c       	mov	r4, r1
    55d0:	51 2c       	mov	r5, r1
    55d2:	21 e5       	ldi	r18, 0x51	; 81
    55d4:	62 2e       	mov	r6, r18
    55d6:	27 e0       	ldi	r18, 0x07	; 7
    55d8:	72 2e       	mov	r7, r18
    55da:	81 2c       	mov	r8, r1
    55dc:	91 2c       	mov	r9, r1
    55de:	80 91 b0 02 	lds	r24, 0x02B0
    55e2:	88 23       	and	r24, r24
    55e4:	09 f4       	brne	.+2      	; 0x55e8 <main+0x25c0>
    55e6:	a3 cb       	rjmp	.-2234   	; 0x4d2e <main+0x1d06>
    55e8:	80 91 6b 03 	lds	r24, 0x036B
    55ec:	90 91 6c 03 	lds	r25, 0x036C
    55f0:	9b bd       	out	0x2b, r25	; 43
    55f2:	8a bd       	out	0x2a, r24	; 42
    55f4:	31 c0       	rjmp	.+98     	; 0x5658 <main+0x2630>
    55f6:	40 90 69 03 	lds	r4, 0x0369
    55fa:	50 90 6a 03 	lds	r5, 0x036A
    55fe:	41 14       	cp	r4, r1
    5600:	51 04       	cpc	r5, r1
    5602:	51 f1       	breq	.+84     	; 0x5658 <main+0x2630>
    5604:	c0 90 65 03 	lds	r12, 0x0365
    5608:	d0 90 66 03 	lds	r13, 0x0366
    560c:	60 2f       	mov	r22, r16
    560e:	70 e0       	ldi	r23, 0x00	; 0
    5610:	80 e0       	ldi	r24, 0x00	; 0
    5612:	90 e0       	ldi	r25, 0x00	; 0
    5614:	20 91 62 03 	lds	r18, 0x0362
    5618:	30 91 63 03 	lds	r19, 0x0363
    561c:	40 e0       	ldi	r20, 0x00	; 0
    561e:	50 e0       	ldi	r21, 0x00	; 0
    5620:	36 01       	movw	r6, r12
    5622:	88 24       	eor	r8, r8
    5624:	99 24       	eor	r9, r9
    5626:	26 19       	sub	r18, r6
    5628:	37 09       	sbc	r19, r7
    562a:	48 09       	sbc	r20, r8
    562c:	59 09       	sbc	r21, r9
    562e:	0e 94 fa 2b 	call	0x57f4	; 0x57f4 <__mulsi3>
    5632:	92 01       	movw	r18, r4
    5634:	40 e0       	ldi	r20, 0x00	; 0
    5636:	50 e0       	ldi	r21, 0x00	; 0
    5638:	0e 94 6e 2c 	call	0x58dc	; 0x58dc <__divmodsi4>
    563c:	c2 0e       	add	r12, r18
    563e:	d3 1e       	adc	r13, r19
    5640:	d0 92 6c 03 	sts	0x036C, r13
    5644:	c0 92 6b 03 	sts	0x036B, r12
    5648:	db bc       	out	0x2b, r13	; 43
    564a:	ca bc       	out	0x2a, r12	; 42
    564c:	01 30       	cpi	r16, 0x01	; 1
    564e:	21 f4       	brne	.+8      	; 0x5658 <main+0x2630>
    5650:	10 92 6a 03 	sts	0x036A, r1
    5654:	10 92 69 03 	sts	0x0369, r1
    5658:	10 92 6d 03 	sts	0x036D, r1
    565c:	10 92 6e 03 	sts	0x036E, r1
    5660:	10 92 6f 03 	sts	0x036F, r1
    5664:	10 92 70 03 	sts	0x0370, r1
    5668:	0c c0       	rjmp	.+24     	; 0x5682 <main+0x265a>
    566a:	2f 5f       	subi	r18, 0xFF	; 255
    566c:	3f 4f       	sbci	r19, 0xFF	; 255
    566e:	4f 4f       	sbci	r20, 0xFF	; 255
    5670:	5f 4f       	sbci	r21, 0xFF	; 255
    5672:	20 93 6d 03 	sts	0x036D, r18
    5676:	30 93 6e 03 	sts	0x036E, r19
    567a:	40 93 6f 03 	sts	0x036F, r20
    567e:	50 93 70 03 	sts	0x0370, r21
		btn_input = INPUT_PUSH_BUTTON;
    5682:	29 b3       	in	r18, 0x19	; 25
    5684:	20 93 f6 02 	sts	0x02F6, r18
		if(PUSHED){
    5688:	80 91 f7 02 	lds	r24, 0x02F7
    568c:	28 17       	cp	r18, r24
    568e:	81 f1       	breq	.+96     	; 0x56f0 <main+0x26c8>
			if(btn_input & 0x01) btn_pressed (1);
    5690:	20 ff       	sbrs	r18, 0
    5692:	03 c0       	rjmp	.+6      	; 0x569a <main+0x2672>
    5694:	81 e0       	ldi	r24, 0x01	; 1
    5696:	90 e0       	ldi	r25, 0x00	; 0
    5698:	29 c0       	rjmp	.+82     	; 0x56ec <main+0x26c4>
			else if(btn_input & 0x02) btn_pressed(2);
    569a:	21 ff       	sbrs	r18, 1
    569c:	03 c0       	rjmp	.+6      	; 0x56a4 <main+0x267c>
    569e:	82 e0       	ldi	r24, 0x02	; 2
    56a0:	90 e0       	ldi	r25, 0x00	; 0
    56a2:	24 c0       	rjmp	.+72     	; 0x56ec <main+0x26c4>
			else if(btn_input & 0x04) btn_pressed(3);
    56a4:	22 ff       	sbrs	r18, 2
    56a6:	03 c0       	rjmp	.+6      	; 0x56ae <main+0x2686>
    56a8:	83 e0       	ldi	r24, 0x03	; 3
    56aa:	90 e0       	ldi	r25, 0x00	; 0
    56ac:	1f c0       	rjmp	.+62     	; 0x56ec <main+0x26c4>
			else if(btn_input & 0x10) btn_pressed(4);
    56ae:	24 ff       	sbrs	r18, 4
    56b0:	03 c0       	rjmp	.+6      	; 0x56b8 <main+0x2690>
    56b2:	84 e0       	ldi	r24, 0x04	; 4
    56b4:	90 e0       	ldi	r25, 0x00	; 0
    56b6:	1a c0       	rjmp	.+52     	; 0x56ec <main+0x26c4>
			else if(btn_input & 0x20) btn_pressed(5);
    56b8:	25 ff       	sbrs	r18, 5
    56ba:	03 c0       	rjmp	.+6      	; 0x56c2 <main+0x269a>
    56bc:	85 e0       	ldi	r24, 0x05	; 5
    56be:	90 e0       	ldi	r25, 0x00	; 0
    56c0:	15 c0       	rjmp	.+42     	; 0x56ec <main+0x26c4>
			else if(btn_input & 0x40) btn_pressed(6);
    56c2:	26 ff       	sbrs	r18, 6
    56c4:	03 c0       	rjmp	.+6      	; 0x56cc <main+0x26a4>
    56c6:	86 e0       	ldi	r24, 0x06	; 6
    56c8:	90 e0       	ldi	r25, 0x00	; 0
    56ca:	10 c0       	rjmp	.+32     	; 0x56ec <main+0x26c4>
			else if(nstate == GAME_STOPPED) btn_pressed((btn_input & 0x08) ? 7 : 0);
    56cc:	80 91 f4 02 	lds	r24, 0x02F4
    56d0:	88 23       	and	r24, r24
    56d2:	29 f4       	brne	.+10     	; 0x56de <main+0x26b6>
    56d4:	23 ff       	sbrs	r18, 3
    56d6:	08 c0       	rjmp	.+16     	; 0x56e8 <main+0x26c0>
    56d8:	87 e0       	ldi	r24, 0x07	; 7
    56da:	90 e0       	ldi	r25, 0x00	; 0
    56dc:	07 c0       	rjmp	.+14     	; 0x56ec <main+0x26c4>
			else if(btn_input & 0x80) btn_pressed(8);
    56de:	27 ff       	sbrs	r18, 7
    56e0:	03 c0       	rjmp	.+6      	; 0x56e8 <main+0x26c0>
    56e2:	88 e0       	ldi	r24, 0x08	; 8
    56e4:	90 e0       	ldi	r25, 0x00	; 0
    56e6:	02 c0       	rjmp	.+4      	; 0x56ec <main+0x26c4>
			else btn_pressed(0);
    56e8:	80 e0       	ldi	r24, 0x00	; 0
    56ea:	90 e0       	ldi	r25, 0x00	; 0
    56ec:	0e 94 83 16 	call	0x2d06	; 0x2d06 <btn_pressed>
		}
		before_btn_input = btn_input;
    56f0:	80 91 f6 02 	lds	r24, 0x02F6
    56f4:	80 93 f7 02 	sts	0x02F7, r24

		if ( TIMER3_CHECK() )
    56f8:	80 91 e5 06 	lds	r24, 0x06E5
    56fc:	88 23       	and	r24, r24
    56fe:	11 f4       	brne	.+4      	; 0x5704 <main+0x26dc>
    5700:	0c 94 70 1f 	jmp	0x3ee0	; 0x3ee0 <main+0xeb8>
    5704:	80 91 e5 06 	lds	r24, 0x06E5
    5708:	81 50       	subi	r24, 0x01	; 1
    570a:	80 93 e5 06 	sts	0x06E5, r24
    570e:	80 91 e6 06 	lds	r24, 0x06E6
    5712:	90 91 e7 06 	lds	r25, 0x06E7
    5716:	01 96       	adiw	r24, 0x01	; 1
    5718:	90 93 e7 06 	sts	0x06E7, r25
    571c:	80 93 e6 06 	sts	0x06E6, r24
		{

			if(TIMER3_current_frame >= effect_timer){
    5720:	20 91 0f 03 	lds	r18, 0x030F
    5724:	30 91 10 03 	lds	r19, 0x0310
    5728:	82 17       	cp	r24, r18
    572a:	93 07       	cpc	r25, r19
    572c:	88 f0       	brcs	.+34     	; 0x5750 <main+0x2728>
				//OLED_HIDE_OBJECT(effect);
				effect->idx_bitmap = 0;
    572e:	e0 91 38 03 	lds	r30, 0x0338
    5732:	f0 91 39 03 	lds	r31, 0x0339
    5736:	10 82       	st	Z, r1
				OLED_INVALIDATE_OBJECT_SIMPLE(effect);
    5738:	e0 91 38 03 	lds	r30, 0x0338
    573c:	f0 91 39 03 	lds	r31, 0x0339
    5740:	85 81       	ldd	r24, Z+5	; 0x05
    5742:	81 60       	ori	r24, 0x01	; 1
    5744:	85 83       	std	Z+5, r24	; 0x05
				OLED_INVALIDATE();
    5746:	80 91 b1 02 	lds	r24, 0x02B1
    574a:	82 60       	ori	r24, 0x02	; 2
    574c:	80 93 b1 02 	sts	0x02B1, r24
			}
			switch(nstate){
    5750:	80 91 f4 02 	lds	r24, 0x02F4
    5754:	84 30       	cpi	r24, 0x04	; 4
    5756:	c1 f0       	breq	.+48     	; 0x5788 <main+0x2760>
    5758:	85 30       	cpi	r24, 0x05	; 5
    575a:	38 f4       	brcc	.+14     	; 0x576a <main+0x2742>
    575c:	88 23       	and	r24, r24
    575e:	61 f0       	breq	.+24     	; 0x5778 <main+0x2750>
    5760:	82 30       	cpi	r24, 0x02	; 2
    5762:	11 f0       	breq	.+4      	; 0x5768 <main+0x2740>
    5764:	0c 94 70 1f 	jmp	0x3ee0	; 0x3ee0 <main+0xeb8>
    5768:	0b c0       	rjmp	.+22     	; 0x5780 <main+0x2758>
    576a:	85 30       	cpi	r24, 0x05	; 5
    576c:	89 f0       	breq	.+34     	; 0x5790 <main+0x2768>
    576e:	86 30       	cpi	r24, 0x06	; 6
    5770:	11 f0       	breq	.+4      	; 0x5776 <main+0x274e>
    5772:	0c 94 70 1f 	jmp	0x3ee0	; 0x3ee0 <main+0xeb8>
    5776:	0e c0       	rjmp	.+28     	; 0x5794 <main+0x276c>
			case GAME_STOPPED:
				game_stopped();
    5778:	0e 94 33 16 	call	0x2c66	; 0x2c66 <game_stopped>
    577c:	0c 94 70 1f 	jmp	0x3ee0	; 0x3ee0 <main+0xeb8>
				break;
			case GAME_START:
				game_start();
    5780:	0e 94 09 16 	call	0x2c12	; 0x2c12 <game_start>
    5784:	0c 94 70 1f 	jmp	0x3ee0	; 0x3ee0 <main+0xeb8>
				break;
			case GAME_DANCE:
				game_dance();
    5788:	0e 94 43 14 	call	0x2886	; 0x2886 <game_dance>
    578c:	0c 94 70 1f 	jmp	0x3ee0	; 0x3ee0 <main+0xeb8>
				break;
			case GAME_SCORE_ANIMATION:
				game_animation();
    5790:	0e 94 b1 12 	call	0x2562	; 0x2562 <game_animation>
			case GAME_OVER:
				game_over();
    5794:	0e 94 31 12 	call	0x2462	; 0x2462 <game_over>
    5798:	0c 94 70 1f 	jmp	0x3ee0	; 0x3ee0 <main+0xeb8>
    579c:	20 91 12 03 	lds	r18, 0x0312
	sei();


	while(1) {
	//	cli();
		LCD_UPDATE();
    57a0:	90 31       	cpi	r25, 0x10	; 16
    57a2:	11 f0       	breq	.+4      	; 0x57a8 <main+0x2780>
    57a4:	0c 94 f1 21 	jmp	0x43e2	; 0x43e2 <main+0x13ba>
    57a8:	0c 94 d9 1f 	jmp	0x3fb2	; 0x3fb2 <main+0xf8a>
		OLED_UPDATE();
    57ac:	27 58       	subi	r18, 0x87	; 135
    57ae:	3c 4f       	sbci	r19, 0xFC	; 252
    57b0:	f9 01       	movw	r30, r18
    57b2:	80 81       	ld	r24, Z
    57b4:	91 81       	ldd	r25, Z+1	; 0x01
    57b6:	fb 01       	movw	r30, r22
    57b8:	95 87       	std	Z+13, r25	; 0x0d
    57ba:	84 87       	std	Z+12, r24	; 0x0c
    57bc:	f9 01       	movw	r30, r18
    57be:	20 81       	ld	r18, Z
    57c0:	31 81       	ldd	r19, Z+1	; 0x01
    57c2:	8d 91       	ld	r24, X+
    57c4:	9c 91       	ld	r25, X
    57c6:	11 97       	sbiw	r26, 0x01	; 1
    57c8:	f9 01       	movw	r30, r18
    57ca:	93 87       	std	Z+11, r25	; 0x0b
    57cc:	82 87       	std	Z+10, r24	; 0x0a
    57ce:	0c 94 68 22 	jmp	0x44d0	; 0x44d0 <main+0x14a8>

000057d2 <__vector_26>:
unsigned volatile char TIMER3_tick;

unsigned int TIMER3_current_frame;

SIGNAL(SIG_OUTPUT_COMPARE3A)
{
    57d2:	1f 92       	push	r1
    57d4:	0f 92       	push	r0
    57d6:	0f b6       	in	r0, 0x3f	; 63
    57d8:	0f 92       	push	r0
    57da:	11 24       	eor	r1, r1
    57dc:	8f 93       	push	r24
	++TIMER3_tick;
    57de:	80 91 e5 06 	lds	r24, 0x06E5
    57e2:	8f 5f       	subi	r24, 0xFF	; 255
    57e4:	80 93 e5 06 	sts	0x06E5, r24
}
    57e8:	8f 91       	pop	r24
    57ea:	0f 90       	pop	r0
    57ec:	0f be       	out	0x3f, r0	; 63
    57ee:	0f 90       	pop	r0
    57f0:	1f 90       	pop	r1
    57f2:	18 95       	reti

000057f4 <__mulsi3>:
    57f4:	62 9f       	mul	r22, r18
    57f6:	d0 01       	movw	r26, r0
    57f8:	73 9f       	mul	r23, r19
    57fa:	f0 01       	movw	r30, r0
    57fc:	82 9f       	mul	r24, r18
    57fe:	e0 0d       	add	r30, r0
    5800:	f1 1d       	adc	r31, r1
    5802:	64 9f       	mul	r22, r20
    5804:	e0 0d       	add	r30, r0
    5806:	f1 1d       	adc	r31, r1
    5808:	92 9f       	mul	r25, r18
    580a:	f0 0d       	add	r31, r0
    580c:	83 9f       	mul	r24, r19
    580e:	f0 0d       	add	r31, r0
    5810:	74 9f       	mul	r23, r20
    5812:	f0 0d       	add	r31, r0
    5814:	65 9f       	mul	r22, r21
    5816:	f0 0d       	add	r31, r0
    5818:	99 27       	eor	r25, r25
    581a:	72 9f       	mul	r23, r18
    581c:	b0 0d       	add	r27, r0
    581e:	e1 1d       	adc	r30, r1
    5820:	f9 1f       	adc	r31, r25
    5822:	63 9f       	mul	r22, r19
    5824:	b0 0d       	add	r27, r0
    5826:	e1 1d       	adc	r30, r1
    5828:	f9 1f       	adc	r31, r25
    582a:	bd 01       	movw	r22, r26
    582c:	cf 01       	movw	r24, r30
    582e:	11 24       	eor	r1, r1
    5830:	08 95       	ret

00005832 <__udivmodqi4>:
    5832:	99 1b       	sub	r25, r25
    5834:	79 e0       	ldi	r23, 0x09	; 9
    5836:	04 c0       	rjmp	.+8      	; 0x5840 <__udivmodqi4_ep>

00005838 <__udivmodqi4_loop>:
    5838:	99 1f       	adc	r25, r25
    583a:	96 17       	cp	r25, r22
    583c:	08 f0       	brcs	.+2      	; 0x5840 <__udivmodqi4_ep>
    583e:	96 1b       	sub	r25, r22

00005840 <__udivmodqi4_ep>:
    5840:	88 1f       	adc	r24, r24
    5842:	7a 95       	dec	r23
    5844:	c9 f7       	brne	.-14     	; 0x5838 <__udivmodqi4_loop>
    5846:	80 95       	com	r24
    5848:	08 95       	ret

0000584a <__udivmodhi4>:
    584a:	aa 1b       	sub	r26, r26
    584c:	bb 1b       	sub	r27, r27
    584e:	51 e1       	ldi	r21, 0x11	; 17
    5850:	07 c0       	rjmp	.+14     	; 0x5860 <__udivmodhi4_ep>

00005852 <__udivmodhi4_loop>:
    5852:	aa 1f       	adc	r26, r26
    5854:	bb 1f       	adc	r27, r27
    5856:	a6 17       	cp	r26, r22
    5858:	b7 07       	cpc	r27, r23
    585a:	10 f0       	brcs	.+4      	; 0x5860 <__udivmodhi4_ep>
    585c:	a6 1b       	sub	r26, r22
    585e:	b7 0b       	sbc	r27, r23

00005860 <__udivmodhi4_ep>:
    5860:	88 1f       	adc	r24, r24
    5862:	99 1f       	adc	r25, r25
    5864:	5a 95       	dec	r21
    5866:	a9 f7       	brne	.-22     	; 0x5852 <__udivmodhi4_loop>
    5868:	80 95       	com	r24
    586a:	90 95       	com	r25
    586c:	bc 01       	movw	r22, r24
    586e:	cd 01       	movw	r24, r26
    5870:	08 95       	ret

00005872 <__divmodhi4>:
    5872:	97 fb       	bst	r25, 7
    5874:	09 2e       	mov	r0, r25
    5876:	07 26       	eor	r0, r23
    5878:	0a d0       	rcall	.+20     	; 0x588e <__divmodhi4_neg1>
    587a:	77 fd       	sbrc	r23, 7
    587c:	04 d0       	rcall	.+8      	; 0x5886 <__divmodhi4_neg2>
    587e:	e5 df       	rcall	.-54     	; 0x584a <__udivmodhi4>
    5880:	06 d0       	rcall	.+12     	; 0x588e <__divmodhi4_neg1>
    5882:	00 20       	and	r0, r0
    5884:	1a f4       	brpl	.+6      	; 0x588c <__divmodhi4_exit>

00005886 <__divmodhi4_neg2>:
    5886:	70 95       	com	r23
    5888:	61 95       	neg	r22
    588a:	7f 4f       	sbci	r23, 0xFF	; 255

0000588c <__divmodhi4_exit>:
    588c:	08 95       	ret

0000588e <__divmodhi4_neg1>:
    588e:	f6 f7       	brtc	.-4      	; 0x588c <__divmodhi4_exit>
    5890:	90 95       	com	r25
    5892:	81 95       	neg	r24
    5894:	9f 4f       	sbci	r25, 0xFF	; 255
    5896:	08 95       	ret

00005898 <__udivmodsi4>:
    5898:	a1 e2       	ldi	r26, 0x21	; 33
    589a:	1a 2e       	mov	r1, r26
    589c:	aa 1b       	sub	r26, r26
    589e:	bb 1b       	sub	r27, r27
    58a0:	fd 01       	movw	r30, r26
    58a2:	0d c0       	rjmp	.+26     	; 0x58be <__udivmodsi4_ep>

000058a4 <__udivmodsi4_loop>:
    58a4:	aa 1f       	adc	r26, r26
    58a6:	bb 1f       	adc	r27, r27
    58a8:	ee 1f       	adc	r30, r30
    58aa:	ff 1f       	adc	r31, r31
    58ac:	a2 17       	cp	r26, r18
    58ae:	b3 07       	cpc	r27, r19
    58b0:	e4 07       	cpc	r30, r20
    58b2:	f5 07       	cpc	r31, r21
    58b4:	20 f0       	brcs	.+8      	; 0x58be <__udivmodsi4_ep>
    58b6:	a2 1b       	sub	r26, r18
    58b8:	b3 0b       	sbc	r27, r19
    58ba:	e4 0b       	sbc	r30, r20
    58bc:	f5 0b       	sbc	r31, r21

000058be <__udivmodsi4_ep>:
    58be:	66 1f       	adc	r22, r22
    58c0:	77 1f       	adc	r23, r23
    58c2:	88 1f       	adc	r24, r24
    58c4:	99 1f       	adc	r25, r25
    58c6:	1a 94       	dec	r1
    58c8:	69 f7       	brne	.-38     	; 0x58a4 <__udivmodsi4_loop>
    58ca:	60 95       	com	r22
    58cc:	70 95       	com	r23
    58ce:	80 95       	com	r24
    58d0:	90 95       	com	r25
    58d2:	9b 01       	movw	r18, r22
    58d4:	ac 01       	movw	r20, r24
    58d6:	bd 01       	movw	r22, r26
    58d8:	cf 01       	movw	r24, r30
    58da:	08 95       	ret

000058dc <__divmodsi4>:
    58dc:	97 fb       	bst	r25, 7
    58de:	09 2e       	mov	r0, r25
    58e0:	05 26       	eor	r0, r21
    58e2:	0e d0       	rcall	.+28     	; 0x5900 <__divmodsi4_neg1>
    58e4:	57 fd       	sbrc	r21, 7
    58e6:	04 d0       	rcall	.+8      	; 0x58f0 <__divmodsi4_neg2>
    58e8:	d7 df       	rcall	.-82     	; 0x5898 <__udivmodsi4>
    58ea:	0a d0       	rcall	.+20     	; 0x5900 <__divmodsi4_neg1>
    58ec:	00 1c       	adc	r0, r0
    58ee:	38 f4       	brcc	.+14     	; 0x58fe <__divmodsi4_exit>

000058f0 <__divmodsi4_neg2>:
    58f0:	50 95       	com	r21
    58f2:	40 95       	com	r20
    58f4:	30 95       	com	r19
    58f6:	21 95       	neg	r18
    58f8:	3f 4f       	sbci	r19, 0xFF	; 255
    58fa:	4f 4f       	sbci	r20, 0xFF	; 255
    58fc:	5f 4f       	sbci	r21, 0xFF	; 255

000058fe <__divmodsi4_exit>:
    58fe:	08 95       	ret

00005900 <__divmodsi4_neg1>:
    5900:	f6 f7       	brtc	.-4      	; 0x58fe <__divmodsi4_exit>
    5902:	90 95       	com	r25
    5904:	80 95       	com	r24
    5906:	70 95       	com	r23
    5908:	61 95       	neg	r22
    590a:	7f 4f       	sbci	r23, 0xFF	; 255
    590c:	8f 4f       	sbci	r24, 0xFF	; 255
    590e:	9f 4f       	sbci	r25, 0xFF	; 255
    5910:	08 95       	ret

00005912 <do_rand>:
    5912:	af 92       	push	r10
    5914:	bf 92       	push	r11
    5916:	cf 92       	push	r12
    5918:	df 92       	push	r13
    591a:	ef 92       	push	r14
    591c:	ff 92       	push	r15
    591e:	0f 93       	push	r16
    5920:	1f 93       	push	r17
    5922:	cf 93       	push	r28
    5924:	df 93       	push	r29
    5926:	ec 01       	movw	r28, r24
    5928:	a8 80       	ld	r10, Y
    592a:	b9 80       	ldd	r11, Y+1	; 0x01
    592c:	ca 80       	ldd	r12, Y+2	; 0x02
    592e:	db 80       	ldd	r13, Y+3	; 0x03
    5930:	a1 14       	cp	r10, r1
    5932:	b1 04       	cpc	r11, r1
    5934:	c1 04       	cpc	r12, r1
    5936:	d1 04       	cpc	r13, r1
    5938:	41 f4       	brne	.+16     	; 0x594a <do_rand+0x38>
    593a:	84 e2       	ldi	r24, 0x24	; 36
    593c:	a8 2e       	mov	r10, r24
    593e:	89 ed       	ldi	r24, 0xD9	; 217
    5940:	b8 2e       	mov	r11, r24
    5942:	8b e5       	ldi	r24, 0x5B	; 91
    5944:	c8 2e       	mov	r12, r24
    5946:	87 e0       	ldi	r24, 0x07	; 7
    5948:	d8 2e       	mov	r13, r24
    594a:	c6 01       	movw	r24, r12
    594c:	b5 01       	movw	r22, r10
    594e:	2d e1       	ldi	r18, 0x1D	; 29
    5950:	33 ef       	ldi	r19, 0xF3	; 243
    5952:	41 e0       	ldi	r20, 0x01	; 1
    5954:	50 e0       	ldi	r21, 0x00	; 0
    5956:	0e 94 6e 2c 	call	0x58dc	; 0x58dc <__divmodsi4>
    595a:	27 ea       	ldi	r18, 0xA7	; 167
    595c:	31 e4       	ldi	r19, 0x41	; 65
    595e:	40 e0       	ldi	r20, 0x00	; 0
    5960:	50 e0       	ldi	r21, 0x00	; 0
    5962:	0e 94 fa 2b 	call	0x57f4	; 0x57f4 <__mulsi3>
    5966:	7b 01       	movw	r14, r22
    5968:	8c 01       	movw	r16, r24
    596a:	c6 01       	movw	r24, r12
    596c:	b5 01       	movw	r22, r10
    596e:	2d e1       	ldi	r18, 0x1D	; 29
    5970:	33 ef       	ldi	r19, 0xF3	; 243
    5972:	41 e0       	ldi	r20, 0x01	; 1
    5974:	50 e0       	ldi	r21, 0x00	; 0
    5976:	0e 94 6e 2c 	call	0x58dc	; 0x58dc <__divmodsi4>
    597a:	ca 01       	movw	r24, r20
    597c:	b9 01       	movw	r22, r18
    597e:	2c ee       	ldi	r18, 0xEC	; 236
    5980:	34 ef       	ldi	r19, 0xF4	; 244
    5982:	4f ef       	ldi	r20, 0xFF	; 255
    5984:	5f ef       	ldi	r21, 0xFF	; 255
    5986:	0e 94 fa 2b 	call	0x57f4	; 0x57f4 <__mulsi3>
    598a:	6e 0d       	add	r22, r14
    598c:	7f 1d       	adc	r23, r15
    598e:	80 1f       	adc	r24, r16
    5990:	91 1f       	adc	r25, r17
    5992:	97 ff       	sbrs	r25, 7
    5994:	04 c0       	rjmp	.+8      	; 0x599e <do_rand+0x8c>
    5996:	61 50       	subi	r22, 0x01	; 1
    5998:	70 40       	sbci	r23, 0x00	; 0
    599a:	80 40       	sbci	r24, 0x00	; 0
    599c:	90 48       	sbci	r25, 0x80	; 128
    599e:	68 83       	st	Y, r22
    59a0:	79 83       	std	Y+1, r23	; 0x01
    59a2:	8a 83       	std	Y+2, r24	; 0x02
    59a4:	9b 83       	std	Y+3, r25	; 0x03
    59a6:	9b 01       	movw	r18, r22
    59a8:	3f 77       	andi	r19, 0x7F	; 127
    59aa:	c9 01       	movw	r24, r18
    59ac:	df 91       	pop	r29
    59ae:	cf 91       	pop	r28
    59b0:	1f 91       	pop	r17
    59b2:	0f 91       	pop	r16
    59b4:	ff 90       	pop	r15
    59b6:	ef 90       	pop	r14
    59b8:	df 90       	pop	r13
    59ba:	cf 90       	pop	r12
    59bc:	bf 90       	pop	r11
    59be:	af 90       	pop	r10
    59c0:	08 95       	ret

000059c2 <rand_r>:
    59c2:	0e 94 89 2c 	call	0x5912	; 0x5912 <do_rand>
    59c6:	08 95       	ret

000059c8 <rand>:
    59c8:	80 ef       	ldi	r24, 0xF0	; 240
    59ca:	92 e0       	ldi	r25, 0x02	; 2
    59cc:	0e 94 89 2c 	call	0x5912	; 0x5912 <do_rand>
    59d0:	08 95       	ret

000059d2 <srand>:
    59d2:	a0 e0       	ldi	r26, 0x00	; 0
    59d4:	b0 e0       	ldi	r27, 0x00	; 0
    59d6:	80 93 f0 02 	sts	0x02F0, r24
    59da:	90 93 f1 02 	sts	0x02F1, r25
    59de:	a0 93 f2 02 	sts	0x02F2, r26
    59e2:	b0 93 f3 02 	sts	0x02F3, r27
    59e6:	08 95       	ret

000059e8 <_exit>:
    59e8:	f8 94       	cli

000059ea <__stop_program>:
    59ea:	ff cf       	rjmp	.-2      	; 0x59ea <__stop_program>
